
/home/hamada/risc-v_git/riscv-tests_C/riscv-tests/work/rv32i_m/F/fcmp.elf:     ファイル形式 elf32-littleriscv


セクション .text.init の逆アセンブル:

00400000 <_start>:
  400000:	04c0006f          	j	40004c <reset_vector>

00400004 <trap_vector>:
  400004:	34202f73          	csrr	t5,mcause
  400008:	00800f93          	li	t6,8
  40000c:	03ff0a63          	beq	t5,t6,400040 <write_tohost>
  400010:	00900f93          	li	t6,9
  400014:	03ff0663          	beq	t5,t6,400040 <write_tohost>
  400018:	00b00f93          	li	t6,11
  40001c:	03ff0263          	beq	t5,t6,400040 <write_tohost>
  400020:	ffc00f17          	auipc	t5,0xffc00
  400024:	fe0f0f13          	addi	t5,t5,-32 # 0 <tohost-0x300000>
  400028:	000f0463          	beqz	t5,400030 <trap_vector+0x2c>
  40002c:	000f0067          	jr	t5
  400030:	34202f73          	csrr	t5,mcause
  400034:	000f5463          	bgez	t5,40003c <handle_exception>
  400038:	0040006f          	j	40003c <handle_exception>

0040003c <handle_exception>:
  40003c:	5391e193          	ori	gp,gp,1337

00400040 <write_tohost>:
  400040:	fff00f17          	auipc	t5,0xfff00
  400044:	fc3f2023          	sw	gp,-64(t5) # 300000 <tohost>
  400048:	ff9ff06f          	j	400040 <write_tohost>

0040004c <reset_vector>:
  40004c:	00000093          	li	ra,0
  400050:	00000113          	li	sp,0
  400054:	00000193          	li	gp,0
  400058:	00000213          	li	tp,0
  40005c:	00000293          	li	t0,0
  400060:	00000313          	li	t1,0
  400064:	00000393          	li	t2,0
  400068:	00000413          	li	s0,0
  40006c:	00000493          	li	s1,0
  400070:	00000513          	li	a0,0
  400074:	00000593          	li	a1,0
  400078:	00000613          	li	a2,0
  40007c:	00000693          	li	a3,0
  400080:	00000713          	li	a4,0
  400084:	00000793          	li	a5,0
  400088:	00000813          	li	a6,0
  40008c:	00000893          	li	a7,0
  400090:	00000913          	li	s2,0
  400094:	00000993          	li	s3,0
  400098:	00000a13          	li	s4,0
  40009c:	00000a93          	li	s5,0
  4000a0:	00000b13          	li	s6,0
  4000a4:	00000b93          	li	s7,0
  4000a8:	00000c13          	li	s8,0
  4000ac:	00000c93          	li	s9,0
  4000b0:	00000d13          	li	s10,0
  4000b4:	00000d93          	li	s11,0
  4000b8:	00000e13          	li	t3,0
  4000bc:	00000e93          	li	t4,0
  4000c0:	00000f13          	li	t5,0
  4000c4:	00000f93          	li	t6,0
  4000c8:	f1402573          	csrr	a0,mhartid
  4000cc:	00051063          	bnez	a0,4000cc <reset_vector+0x80>
  4000d0:	00000297          	auipc	t0,0x0
  4000d4:	01028293          	addi	t0,t0,16 # 4000e0 <reset_vector+0x94>
  4000d8:	30529073          	csrw	mtvec,t0
  4000dc:	18005073          	csrwi	satp,0
  4000e0:	00000297          	auipc	t0,0x0
  4000e4:	02028293          	addi	t0,t0,32 # 400100 <reset_vector+0xb4>
  4000e8:	30529073          	csrw	mtvec,t0
  4000ec:	800002b7          	lui	t0,0x80000
  4000f0:	fff28293          	addi	t0,t0,-1 # 7fffffff <_end+0x7fbffa3f>
  4000f4:	3b029073          	csrw	pmpaddr0,t0
  4000f8:	01f00293          	li	t0,31
  4000fc:	3a029073          	csrw	pmpcfg0,t0
  400100:	30405073          	csrwi	mie,0
  400104:	00000297          	auipc	t0,0x0
  400108:	01428293          	addi	t0,t0,20 # 400118 <reset_vector+0xcc>
  40010c:	30529073          	csrw	mtvec,t0
  400110:	30205073          	csrwi	medeleg,0
  400114:	30305073          	csrwi	mideleg,0
  400118:	00000193          	li	gp,0
  40011c:	00000297          	auipc	t0,0x0
  400120:	ee828293          	addi	t0,t0,-280 # 400004 <trap_vector>
  400124:	30529073          	csrw	mtvec,t0
  400128:	00100513          	li	a0,1
  40012c:	01f51513          	slli	a0,a0,0x1f
  400130:	00054e63          	bltz	a0,40014c <reset_vector+0x100>
  400134:	0ff0000f          	fence
  400138:	00100193          	li	gp,1
  40013c:	05d00893          	li	a7,93
  400140:	00000513          	li	a0,0
  400144:	cda2d073          	csrwi	0xcda,5
  400148:	00000073          	ecall
  40014c:	ffc00297          	auipc	t0,0xffc00
  400150:	eb428293          	addi	t0,t0,-332 # 0 <tohost-0x300000>
  400154:	00028a63          	beqz	t0,400168 <reset_vector+0x11c>
  400158:	10529073          	csrw	stvec,t0
  40015c:	0000b2b7          	lui	t0,0xb
  400160:	10928293          	addi	t0,t0,265 # b109 <tohost-0x2f4ef7>
  400164:	30229073          	csrw	medeleg,t0
  400168:	30005073          	csrwi	mstatus,0
  40016c:	00002537          	lui	a0,0x2
  400170:	30052073          	csrs	mstatus,a0
  400174:	00305073          	csrwi	fcsr,0
  400178:	00000297          	auipc	t0,0x0
  40017c:	01428293          	addi	t0,t0,20 # 40018c <test_2>
  400180:	34129073          	csrw	mepc,t0
  400184:	f1402573          	csrr	a0,mhartid
  400188:	30200073          	mret

0040018c <test_2>:
  40018c:	00200193          	li	gp,2
  400190:	00000517          	auipc	a0,0x0
  400194:	34050513          	addi	a0,a0,832 # 4004d0 <test_2_data>
  400198:	00052007          	flw	ft0,0(a0)
  40019c:	00452087          	flw	ft1,4(a0)
  4001a0:	00852107          	flw	ft2,8(a0)
  4001a4:	00c52683          	lw	a3,12(a0)
  4001a8:	a0102553          	feq.s	a0,ft0,ft1
  4001ac:	001015f3          	fsflags	a1,zero
  4001b0:	00000613          	li	a2,0
  4001b4:	2ad51663          	bne	a0,a3,400460 <fail>
  4001b8:	2ac59463          	bne	a1,a2,400460 <fail>

004001bc <test_3>:
  4001bc:	00300193          	li	gp,3
  4001c0:	00000517          	auipc	a0,0x0
  4001c4:	32050513          	addi	a0,a0,800 # 4004e0 <test_3_data>
  4001c8:	00052007          	flw	ft0,0(a0)
  4001cc:	00452087          	flw	ft1,4(a0)
  4001d0:	00852107          	flw	ft2,8(a0)
  4001d4:	00c52683          	lw	a3,12(a0)
  4001d8:	a0100553          	fle.s	a0,ft0,ft1
  4001dc:	001015f3          	fsflags	a1,zero
  4001e0:	00000613          	li	a2,0
  4001e4:	26d51e63          	bne	a0,a3,400460 <fail>
  4001e8:	26c59c63          	bne	a1,a2,400460 <fail>

004001ec <test_4>:
  4001ec:	00400193          	li	gp,4
  4001f0:	00000517          	auipc	a0,0x0
  4001f4:	30050513          	addi	a0,a0,768 # 4004f0 <test_4_data>
  4001f8:	00052007          	flw	ft0,0(a0)
  4001fc:	00452087          	flw	ft1,4(a0)
  400200:	00852107          	flw	ft2,8(a0)
  400204:	00c52683          	lw	a3,12(a0)
  400208:	a0101553          	flt.s	a0,ft0,ft1
  40020c:	001015f3          	fsflags	a1,zero
  400210:	00000613          	li	a2,0
  400214:	24d51663          	bne	a0,a3,400460 <fail>
  400218:	24c59463          	bne	a1,a2,400460 <fail>

0040021c <test_5>:
  40021c:	00500193          	li	gp,5
  400220:	00000517          	auipc	a0,0x0
  400224:	2e050513          	addi	a0,a0,736 # 400500 <test_5_data>
  400228:	00052007          	flw	ft0,0(a0)
  40022c:	00452087          	flw	ft1,4(a0)
  400230:	00852107          	flw	ft2,8(a0)
  400234:	00c52683          	lw	a3,12(a0)
  400238:	a0102553          	feq.s	a0,ft0,ft1
  40023c:	001015f3          	fsflags	a1,zero
  400240:	00000613          	li	a2,0
  400244:	20d51e63          	bne	a0,a3,400460 <fail>
  400248:	20c59c63          	bne	a1,a2,400460 <fail>

0040024c <test_6>:
  40024c:	00600193          	li	gp,6
  400250:	00000517          	auipc	a0,0x0
  400254:	2c050513          	addi	a0,a0,704 # 400510 <test_6_data>
  400258:	00052007          	flw	ft0,0(a0)
  40025c:	00452087          	flw	ft1,4(a0)
  400260:	00852107          	flw	ft2,8(a0)
  400264:	00c52683          	lw	a3,12(a0)
  400268:	a0100553          	fle.s	a0,ft0,ft1
  40026c:	001015f3          	fsflags	a1,zero
  400270:	00000613          	li	a2,0
  400274:	1ed51663          	bne	a0,a3,400460 <fail>
  400278:	1ec59463          	bne	a1,a2,400460 <fail>

0040027c <test_7>:
  40027c:	00700193          	li	gp,7
  400280:	00000517          	auipc	a0,0x0
  400284:	2a050513          	addi	a0,a0,672 # 400520 <test_7_data>
  400288:	00052007          	flw	ft0,0(a0)
  40028c:	00452087          	flw	ft1,4(a0)
  400290:	00852107          	flw	ft2,8(a0)
  400294:	00c52683          	lw	a3,12(a0)
  400298:	a0101553          	flt.s	a0,ft0,ft1
  40029c:	001015f3          	fsflags	a1,zero
  4002a0:	00000613          	li	a2,0
  4002a4:	1ad51e63          	bne	a0,a3,400460 <fail>
  4002a8:	1ac59c63          	bne	a1,a2,400460 <fail>

004002ac <test_8>:
  4002ac:	00800193          	li	gp,8
  4002b0:	00000517          	auipc	a0,0x0
  4002b4:	28050513          	addi	a0,a0,640 # 400530 <test_8_data>
  4002b8:	00052007          	flw	ft0,0(a0)
  4002bc:	00452087          	flw	ft1,4(a0)
  4002c0:	00852107          	flw	ft2,8(a0)
  4002c4:	00c52683          	lw	a3,12(a0)
  4002c8:	a0102553          	feq.s	a0,ft0,ft1
  4002cc:	001015f3          	fsflags	a1,zero
  4002d0:	00000613          	li	a2,0
  4002d4:	18d51663          	bne	a0,a3,400460 <fail>
  4002d8:	18c59463          	bne	a1,a2,400460 <fail>

004002dc <test_9>:
  4002dc:	00900193          	li	gp,9
  4002e0:	00000517          	auipc	a0,0x0
  4002e4:	26050513          	addi	a0,a0,608 # 400540 <test_9_data>
  4002e8:	00052007          	flw	ft0,0(a0)
  4002ec:	00452087          	flw	ft1,4(a0)
  4002f0:	00852107          	flw	ft2,8(a0)
  4002f4:	00c52683          	lw	a3,12(a0)
  4002f8:	a0102553          	feq.s	a0,ft0,ft1
  4002fc:	001015f3          	fsflags	a1,zero
  400300:	00000613          	li	a2,0
  400304:	14d51e63          	bne	a0,a3,400460 <fail>
  400308:	14c59c63          	bne	a1,a2,400460 <fail>

0040030c <test_10>:
  40030c:	00a00193          	li	gp,10
  400310:	00000517          	auipc	a0,0x0
  400314:	24050513          	addi	a0,a0,576 # 400550 <test_10_data>
  400318:	00052007          	flw	ft0,0(a0)
  40031c:	00452087          	flw	ft1,4(a0)
  400320:	00852107          	flw	ft2,8(a0)
  400324:	00c52683          	lw	a3,12(a0)
  400328:	a0102553          	feq.s	a0,ft0,ft1
  40032c:	001015f3          	fsflags	a1,zero
  400330:	01000613          	li	a2,16
  400334:	12d51663          	bne	a0,a3,400460 <fail>
  400338:	12c59463          	bne	a1,a2,400460 <fail>

0040033c <test_11>:
  40033c:	00b00193          	li	gp,11
  400340:	00000517          	auipc	a0,0x0
  400344:	22050513          	addi	a0,a0,544 # 400560 <test_11_data>
  400348:	00052007          	flw	ft0,0(a0)
  40034c:	00452087          	flw	ft1,4(a0)
  400350:	00852107          	flw	ft2,8(a0)
  400354:	00c52683          	lw	a3,12(a0)
  400358:	a0101553          	flt.s	a0,ft0,ft1
  40035c:	001015f3          	fsflags	a1,zero
  400360:	01000613          	li	a2,16
  400364:	0ed51e63          	bne	a0,a3,400460 <fail>
  400368:	0ec59c63          	bne	a1,a2,400460 <fail>

0040036c <test_12>:
  40036c:	00c00193          	li	gp,12
  400370:	00000517          	auipc	a0,0x0
  400374:	20050513          	addi	a0,a0,512 # 400570 <test_12_data>
  400378:	00052007          	flw	ft0,0(a0)
  40037c:	00452087          	flw	ft1,4(a0)
  400380:	00852107          	flw	ft2,8(a0)
  400384:	00c52683          	lw	a3,12(a0)
  400388:	a0101553          	flt.s	a0,ft0,ft1
  40038c:	001015f3          	fsflags	a1,zero
  400390:	01000613          	li	a2,16
  400394:	0cd51663          	bne	a0,a3,400460 <fail>
  400398:	0cc59463          	bne	a1,a2,400460 <fail>

0040039c <test_13>:
  40039c:	00d00193          	li	gp,13
  4003a0:	00000517          	auipc	a0,0x0
  4003a4:	1e050513          	addi	a0,a0,480 # 400580 <test_13_data>
  4003a8:	00052007          	flw	ft0,0(a0)
  4003ac:	00452087          	flw	ft1,4(a0)
  4003b0:	00852107          	flw	ft2,8(a0)
  4003b4:	00c52683          	lw	a3,12(a0)
  4003b8:	a0101553          	flt.s	a0,ft0,ft1
  4003bc:	001015f3          	fsflags	a1,zero
  4003c0:	01000613          	li	a2,16
  4003c4:	08d51e63          	bne	a0,a3,400460 <fail>
  4003c8:	08c59c63          	bne	a1,a2,400460 <fail>

004003cc <test_14>:
  4003cc:	00e00193          	li	gp,14
  4003d0:	00000517          	auipc	a0,0x0
  4003d4:	1c050513          	addi	a0,a0,448 # 400590 <test_14_data>
  4003d8:	00052007          	flw	ft0,0(a0)
  4003dc:	00452087          	flw	ft1,4(a0)
  4003e0:	00852107          	flw	ft2,8(a0)
  4003e4:	00c52683          	lw	a3,12(a0)
  4003e8:	a0100553          	fle.s	a0,ft0,ft1
  4003ec:	001015f3          	fsflags	a1,zero
  4003f0:	01000613          	li	a2,16
  4003f4:	06d51663          	bne	a0,a3,400460 <fail>
  4003f8:	06c59463          	bne	a1,a2,400460 <fail>

004003fc <test_15>:
  4003fc:	00f00193          	li	gp,15
  400400:	00000517          	auipc	a0,0x0
  400404:	1a050513          	addi	a0,a0,416 # 4005a0 <test_15_data>
  400408:	00052007          	flw	ft0,0(a0)
  40040c:	00452087          	flw	ft1,4(a0)
  400410:	00852107          	flw	ft2,8(a0)
  400414:	00c52683          	lw	a3,12(a0)
  400418:	a0100553          	fle.s	a0,ft0,ft1
  40041c:	001015f3          	fsflags	a1,zero
  400420:	01000613          	li	a2,16
  400424:	02d51e63          	bne	a0,a3,400460 <fail>
  400428:	02c59c63          	bne	a1,a2,400460 <fail>

0040042c <test_16>:
  40042c:	01000193          	li	gp,16
  400430:	00000517          	auipc	a0,0x0
  400434:	18050513          	addi	a0,a0,384 # 4005b0 <test_16_data>
  400438:	00052007          	flw	ft0,0(a0)
  40043c:	00452087          	flw	ft1,4(a0)
  400440:	00852107          	flw	ft2,8(a0)
  400444:	00c52683          	lw	a3,12(a0)
  400448:	a0100553          	fle.s	a0,ft0,ft1
  40044c:	001015f3          	fsflags	a1,zero
  400450:	01000613          	li	a2,16
  400454:	00d51663          	bne	a0,a3,400460 <fail>
  400458:	00c59463          	bne	a1,a2,400460 <fail>
  40045c:	02301463          	bne	zero,gp,400484 <pass>

00400460 <fail>:
  400460:	0ff0000f          	fence
  400464:	00018063          	beqz	gp,400464 <fail+0x4>
  400468:	00119193          	slli	gp,gp,0x1
  40046c:	0011e193          	ori	gp,gp,1
  400470:	05d00893          	li	a7,93
  400474:	00018513          	mv	a0,gp
  400478:	cda4d073          	csrwi	0xcda,9
  40047c:	cd90e073          	csrsi	0xcd9,1
  400480:	00000073          	ecall

00400484 <pass>:
  400484:	0ff0000f          	fence
  400488:	00100193          	li	gp,1
  40048c:	05d00893          	li	a7,93
  400490:	00000513          	li	a0,0
  400494:	cda2d073          	csrwi	0xcda,5
  400498:	00000073          	ecall
  40049c:	c0001073          	unimp
	...

セクション .tohost の逆アセンブル:

00300000 <tohost>:
	...

00300040 <fromhost>:
	...

セクション .data の逆アセンブル:

004004d0 <test_2_data>:
  4004d0:	bfae147b          	0xbfae147b
  4004d4:	bfae147b          	0xbfae147b
  4004d8:	0000                	unimp
  4004da:	0000                	unimp
  4004dc:	0001                	nop
	...

004004e0 <test_3_data>:
  4004e0:	bfae147b          	0xbfae147b
  4004e4:	bfae147b          	0xbfae147b
  4004e8:	0000                	unimp
  4004ea:	0000                	unimp
  4004ec:	0001                	nop
	...

004004f0 <test_4_data>:
  4004f0:	bfae147b          	0xbfae147b
  4004f4:	bfae147b          	0xbfae147b
	...

00400500 <test_5_data>:
  400500:	5c29                	li	s8,-22
  400502:	147bbfaf          	0x147bbfaf
  400506:	bfae                	fsd	fa1,504(sp)
	...

00400510 <test_6_data>:
  400510:	5c29                	li	s8,-22
  400512:	147bbfaf          	0x147bbfaf
  400516:	bfae                	fsd	fa1,504(sp)
  400518:	0000                	unimp
  40051a:	0000                	unimp
  40051c:	0001                	nop
	...

00400520 <test_7_data>:
  400520:	5c29                	li	s8,-22
  400522:	147bbfaf          	0x147bbfaf
  400526:	bfae                	fsd	fa1,504(sp)
  400528:	0000                	unimp
  40052a:	0000                	unimp
  40052c:	0001                	nop
	...

00400530 <test_8_data>:
  400530:	ffff                	0xffff
  400532:	7fff                	0x7fff
	...

00400540 <test_9_data>:
  400540:	ffff                	0xffff
  400542:	7fff                	0x7fff
  400544:	ffff                	0xffff
  400546:	7fff                	0x7fff
	...

00400550 <test_10_data>:
  400550:	0001                	nop
  400552:	7f80                	flw	fs0,56(a5)
	...

00400560 <test_11_data>:
  400560:	ffff                	0xffff
  400562:	7fff                	0x7fff
	...

00400570 <test_12_data>:
  400570:	ffff                	0xffff
  400572:	7fff                	0x7fff
  400574:	ffff                	0xffff
  400576:	7fff                	0x7fff
	...

00400580 <test_13_data>:
  400580:	0001                	nop
  400582:	7f80                	flw	fs0,56(a5)
	...

00400590 <test_14_data>:
  400590:	ffff                	0xffff
  400592:	7fff                	0x7fff
	...

004005a0 <test_15_data>:
  4005a0:	ffff                	0xffff
  4005a2:	7fff                	0x7fff
  4005a4:	ffff                	0xffff
  4005a6:	7fff                	0x7fff
	...

004005b0 <test_16_data>:
  4005b0:	0001                	nop
  4005b2:	7f80                	flw	fs0,56(a5)
	...

セクション .riscv.attributes の逆アセンブル:

00000000 <.riscv.attributes>:
   0:	2241                	jal	180 <tohost-0x2ffe80>
   2:	0000                	unimp
   4:	7200                	flw	fs0,32(a2)
   6:	7369                	lui	t1,0xffffa
   8:	01007663          	bgeu	zero,a6,14 <tohost-0x2fffec>
   c:	0018                	0x18
   e:	0000                	unimp
  10:	7205                	lui	tp,0xfffe1
  12:	3376                	fld	ft6,376(sp)
  14:	6932                	flw	fs2,12(sp)
  16:	7032                	flw	ft0,44(sp)
  18:	5f30                	lw	a2,120(a4)
  1a:	3266                	fld	ft4,120(sp)
  1c:	3070                	fld	fa2,224(s0)
  1e:	0800                	addi	s0,sp,16
  20:	0a01                	addi	s4,s4,0
  22:	0b              	Address 0x0000000000000022 is out of bounds.


セクション .debug_line の逆アセンブル:

00000000 <.debug_line>:
   0:	00ac                	addi	a1,sp,72
   2:	0000                	unimp
   4:	0005                	c.nop	1
   6:	0004                	0x4
   8:	002e                	c.slli	zero,0xb
   a:	0000                	unimp
   c:	0101                	addi	sp,sp,0
   e:	fb01                	bnez	a4,ffffff1e <_end+0xffbff95e>
  10:	0d0e                	slli	s10,s10,0x3
  12:	0100                	addi	s0,sp,128
  14:	0101                	addi	sp,sp,0
  16:	0001                	nop
  18:	0000                	unimp
  1a:	0001                	nop
  1c:	0100                	addi	s0,sp,128
  1e:	0101                	addi	sp,sp,0
  20:	021f 0000 0000      	0x21f
  26:	0000                	unimp
  28:	0000                	unimp
  2a:	0102                	c.slli64	sp
  2c:	021f 020f 000e      	0xe020f021f
  32:	0000                	unimp
  34:	0e00                	addi	s0,sp,784
  36:	0000                	unimp
  38:	0100                	addi	s0,sp,128
  3a:	0500                	addi	s0,sp,640
  3c:	0002                	c.slli64	zero
  3e:	4000                	lw	s0,0(s0)
  40:	0300                	addi	s0,sp,384
  42:	010d                	addi	sp,sp,3
  44:	8c090603          	lb	a2,-1856(s2)
  48:	0101                	addi	sp,sp,0
  4a:	30090103          	lb	sp,768(s2)
  4e:	0100                	addi	s0,sp,128
  50:	30090103          	lb	sp,768(s2)
  54:	0100                	addi	s0,sp,128
  56:	30090203          	lb	tp,768(s2)
  5a:	0100                	addi	s0,sp,128
  5c:	30090103          	lb	sp,768(s2)
  60:	0100                	addi	s0,sp,128
  62:	30090103          	lb	sp,768(s2)
  66:	0100                	addi	s0,sp,128
  68:	30090303          	lb	t1,768(s2)
  6c:	0100                	addi	s0,sp,128
  6e:	30090103          	lb	sp,768(s2)
  72:	0100                	addi	s0,sp,128
  74:	30090103          	lb	sp,768(s2)
  78:	0100                	addi	s0,sp,128
  7a:	30090303          	lb	t1,768(s2)
  7e:	0100                	addi	s0,sp,128
  80:	30090103          	lb	sp,768(s2)
  84:	0100                	addi	s0,sp,128
  86:	30090103          	lb	sp,768(s2)
  8a:	0100                	addi	s0,sp,128
  8c:	30090103          	lb	sp,768(s2)
  90:	0100                	addi	s0,sp,128
  92:	30090103          	lb	sp,768(s2)
  96:	0100                	addi	s0,sp,128
  98:	30090103          	lb	sp,768(s2)
  9c:	0100                	addi	s0,sp,128
  9e:	30090203          	lb	tp,768(s2)
  a2:	0100                	addi	s0,sp,128
  a4:	40090203          	lb	tp,1024(s2)
  a8:	0100                	addi	s0,sp,128
  aa:	0409                	addi	s0,s0,2
  ac:	0000                	unimp
  ae:	0101                	addi	sp,sp,0

セクション .debug_line_str の逆アセンブル:

00000000 <.debug_line_str>:
   0:	2f637273          	csrrci	tp,0x2f6,6
   4:	2e2e                	fld	ft8,200(sp)
   6:	3676722f          	0x3676722f
   a:	7534                	flw	fa3,104(a0)
   c:	0066                	c.slli	zero,0x19
   e:	6366                	flw	ft6,88(sp)
  10:	706d                	c.lui	zero,0xffffb
  12:	532e                	lw	t1,232(sp)
	...

セクション .debug_info の逆アセンブル:

00000000 <.debug_info>:
   0:	0021                	c.nop	8
   2:	0000                	unimp
   4:	0005                	c.nop	1
   6:	0401                	addi	s0,s0,0
   8:	0000                	unimp
   a:	0000                	unimp
   c:	0001                	nop
   e:	0000                	unimp
  10:	0000                	unimp
  12:	4000                	lw	s0,0(s0)
  14:	dc00                	sw	s0,56(s0)
  16:	0009                	c.nop	2
  18:	0000                	unimp
  1a:	0700                	addi	s0,sp,896
  1c:	0000                	unimp
  1e:	5400                	lw	s0,40(s0)
  20:	0000                	unimp
  22:	0100                	addi	s0,sp,128
  24:	80              	Address 0x0000000000000024 is out of bounds.


セクション .debug_abbrev の逆アセンブル:

00000000 <.debug_abbrev>:
   0:	1101                	addi	sp,sp,-32
   2:	1000                	addi	s0,sp,32
   4:	12011117          	auipc	sp,0x12011
   8:	1b0e030f          	0x1b0e030f
   c:	250e                	fld	fa0,192(sp)
   e:	130e                	slli	t1,t1,0x23
  10:	0005                	c.nop	1
	...

セクション .debug_aranges の逆アセンブル:

00000000 <.debug_aranges>:
   0:	001c                	0x1c
   2:	0000                	unimp
   4:	0002                	c.slli64	zero
   6:	0000                	unimp
   8:	0000                	unimp
   a:	0004                	0x4
   c:	0000                	unimp
   e:	0000                	unimp
  10:	0000                	unimp
  12:	0040                	addi	s0,sp,4
  14:	04a0                	addi	s0,sp,584
	...

セクション .debug_str の逆アセンブル:

00000000 <.debug_str>:
   0:	6366                	flw	ft6,88(sp)
   2:	706d                	c.lui	zero,0xffffb
   4:	532e                	lw	t1,232(sp)
   6:	2f00                	fld	fs0,24(a4)
   8:	6f68                	flw	fa0,92(a4)
   a:	656d                	lui	a0,0x1b
   c:	6d61682f          	0x6d61682f
  10:	6461                	lui	s0,0x18
  12:	2f61                	jal	7aa <tohost-0x2ff856>
  14:	6972                	flw	fs2,28(sp)
  16:	762d6373          	csrrsi	t1,0x762,26
  1a:	675f 7469 722f      	0x722f7469675f
  20:	7369                	lui	t1,0xffffa
  22:	742d7663          	bgeu	s10,sp,76e <tohost-0x2ff892>
  26:	7365                	lui	t1,0xffff9
  28:	7374                	flw	fa3,100(a4)
  2a:	435f 722f 7369      	0x7369722f435f
  30:	742d7663          	bgeu	s10,sp,77c <tohost-0x2ff884>
  34:	7365                	lui	t1,0xffff9
  36:	7374                	flw	fa3,100(a4)
  38:	7369722f          	0x7369722f
  3c:	742d7663          	bgeu	s10,sp,788 <tohost-0x2ff878>
  40:	7365                	lui	t1,0xffff9
  42:	2d74                	fld	fa3,216(a0)
  44:	74697573          	csrrci	a0,0x746,18
  48:	2f65                	jal	800 <tohost-0x2ff800>
  4a:	7672                	flw	fa2,60(sp)
  4c:	5f693233          	0x5f693233
  50:	2f6d                	jal	80a <tohost-0x2ff7f6>
  52:	0046                	c.slli	zero,0x11
  54:	20554e47          	fmsub.s	ft8,fa0,ft5,ft4,rmm
  58:	5341                	li	t1,-16
  5a:	3220                	fld	fs0,96(a2)
  5c:	332e                	fld	ft6,232(sp)
  5e:	2e36                	fld	ft8,328(sp)
  60:	0031                	c.nop	12
