
/home/hamada/risc-v_git/riscv-tests_C/riscv-tests/work/rv32i_m/F/fcvt_w.elf:     ファイル形式 elf32-littleriscv


セクション .text.init の逆アセンブル:

00400000 <_start>:
  400000:	04c0006f          	j	40004c <reset_vector>

00400004 <trap_vector>:
  400004:	34202f73          	csrr	t5,mcause
  400008:	00800f93          	li	t6,8
  40000c:	03ff0a63          	beq	t5,t6,400040 <write_tohost>
  400010:	00900f93          	li	t6,9
  400014:	03ff0663          	beq	t5,t6,400040 <write_tohost>
  400018:	00b00f93          	li	t6,11
  40001c:	03ff0263          	beq	t5,t6,400040 <write_tohost>
  400020:	ffc00f17          	auipc	t5,0xffc00
  400024:	fe0f0f13          	addi	t5,t5,-32 # 0 <tohost-0x300000>
  400028:	000f0463          	beqz	t5,400030 <trap_vector+0x2c>
  40002c:	000f0067          	jr	t5
  400030:	34202f73          	csrr	t5,mcause
  400034:	000f5463          	bgez	t5,40003c <handle_exception>
  400038:	0040006f          	j	40003c <handle_exception>

0040003c <handle_exception>:
  40003c:	5391e193          	ori	gp,gp,1337

00400040 <write_tohost>:
  400040:	fff00f17          	auipc	t5,0xfff00
  400044:	fc3f2023          	sw	gp,-64(t5) # 300000 <tohost>
  400048:	ff9ff06f          	j	400040 <write_tohost>

0040004c <reset_vector>:
  40004c:	00000093          	li	ra,0
  400050:	00000113          	li	sp,0
  400054:	00000193          	li	gp,0
  400058:	00000213          	li	tp,0
  40005c:	00000293          	li	t0,0
  400060:	00000313          	li	t1,0
  400064:	00000393          	li	t2,0
  400068:	00000413          	li	s0,0
  40006c:	00000493          	li	s1,0
  400070:	00000513          	li	a0,0
  400074:	00000593          	li	a1,0
  400078:	00000613          	li	a2,0
  40007c:	00000693          	li	a3,0
  400080:	00000713          	li	a4,0
  400084:	00000793          	li	a5,0
  400088:	00000813          	li	a6,0
  40008c:	00000893          	li	a7,0
  400090:	00000913          	li	s2,0
  400094:	00000993          	li	s3,0
  400098:	00000a13          	li	s4,0
  40009c:	00000a93          	li	s5,0
  4000a0:	00000b13          	li	s6,0
  4000a4:	00000b93          	li	s7,0
  4000a8:	00000c13          	li	s8,0
  4000ac:	00000c93          	li	s9,0
  4000b0:	00000d13          	li	s10,0
  4000b4:	00000d93          	li	s11,0
  4000b8:	00000e13          	li	t3,0
  4000bc:	00000e93          	li	t4,0
  4000c0:	00000f13          	li	t5,0
  4000c4:	00000f93          	li	t6,0
  4000c8:	f1402573          	csrr	a0,mhartid
  4000cc:	00051063          	bnez	a0,4000cc <reset_vector+0x80>
  4000d0:	00000297          	auipc	t0,0x0
  4000d4:	01028293          	addi	t0,t0,16 # 4000e0 <reset_vector+0x94>
  4000d8:	30529073          	csrw	mtvec,t0
  4000dc:	18005073          	csrwi	satp,0
  4000e0:	00000297          	auipc	t0,0x0
  4000e4:	02028293          	addi	t0,t0,32 # 400100 <reset_vector+0xb4>
  4000e8:	30529073          	csrw	mtvec,t0
  4000ec:	800002b7          	lui	t0,0x80000
  4000f0:	fff28293          	addi	t0,t0,-1 # 7fffffff <_end+0x7fbff8ff>
  4000f4:	3b029073          	csrw	pmpaddr0,t0
  4000f8:	01f00293          	li	t0,31
  4000fc:	3a029073          	csrw	pmpcfg0,t0
  400100:	30405073          	csrwi	mie,0
  400104:	00000297          	auipc	t0,0x0
  400108:	01428293          	addi	t0,t0,20 # 400118 <reset_vector+0xcc>
  40010c:	30529073          	csrw	mtvec,t0
  400110:	30205073          	csrwi	medeleg,0
  400114:	30305073          	csrwi	mideleg,0
  400118:	00000193          	li	gp,0
  40011c:	00000297          	auipc	t0,0x0
  400120:	ee828293          	addi	t0,t0,-280 # 400004 <trap_vector>
  400124:	30529073          	csrw	mtvec,t0
  400128:	00100513          	li	a0,1
  40012c:	01f51513          	slli	a0,a0,0x1f
  400130:	00054e63          	bltz	a0,40014c <reset_vector+0x100>
  400134:	0ff0000f          	fence
  400138:	00100193          	li	gp,1
  40013c:	05d00893          	li	a7,93
  400140:	00000513          	li	a0,0
  400144:	cda2d073          	csrwi	0xcda,5
  400148:	00000073          	ecall
  40014c:	ffc00297          	auipc	t0,0xffc00
  400150:	eb428293          	addi	t0,t0,-332 # 0 <tohost-0x300000>
  400154:	00028a63          	beqz	t0,400168 <reset_vector+0x11c>
  400158:	10529073          	csrw	stvec,t0
  40015c:	0000b2b7          	lui	t0,0xb
  400160:	10928293          	addi	t0,t0,265 # b109 <tohost-0x2f4ef7>
  400164:	30229073          	csrw	medeleg,t0
  400168:	30005073          	csrwi	mstatus,0
  40016c:	00002537          	lui	a0,0x2
  400170:	30052073          	csrs	mstatus,a0
  400174:	00305073          	csrwi	fcsr,0
  400178:	00000297          	auipc	t0,0x0
  40017c:	01428293          	addi	t0,t0,20 # 40018c <test_2>
  400180:	34129073          	csrw	mepc,t0
  400184:	f1402573          	csrr	a0,mhartid
  400188:	30200073          	mret

0040018c <test_2>:
  40018c:	00200193          	li	gp,2
  400190:	00000517          	auipc	a0,0x0
  400194:	44050513          	addi	a0,a0,1088 # 4005d0 <test_2_data>
  400198:	00052007          	flw	ft0,0(a0)
  40019c:	00452087          	flw	ft1,4(a0)
  4001a0:	00852107          	flw	ft2,8(a0)
  4001a4:	00c52683          	lw	a3,12(a0)
  4001a8:	c0001553          	fcvt.w.s	a0,ft0,rtz
  4001ac:	001015f3          	fsflags	a1,zero
  4001b0:	00100613          	li	a2,1
  4001b4:	3cd51463          	bne	a0,a3,40057c <fail>
  4001b8:	3cc59263          	bne	a1,a2,40057c <fail>

004001bc <test_3>:
  4001bc:	00300193          	li	gp,3
  4001c0:	00000517          	auipc	a0,0x0
  4001c4:	42050513          	addi	a0,a0,1056 # 4005e0 <test_3_data>
  4001c8:	00052007          	flw	ft0,0(a0)
  4001cc:	00452087          	flw	ft1,4(a0)
  4001d0:	00852107          	flw	ft2,8(a0)
  4001d4:	00c52683          	lw	a3,12(a0)
  4001d8:	c0001553          	fcvt.w.s	a0,ft0,rtz
  4001dc:	001015f3          	fsflags	a1,zero
  4001e0:	00000613          	li	a2,0
  4001e4:	38d51c63          	bne	a0,a3,40057c <fail>
  4001e8:	38c59a63          	bne	a1,a2,40057c <fail>

004001ec <test_4>:
  4001ec:	00400193          	li	gp,4
  4001f0:	00000517          	auipc	a0,0x0
  4001f4:	40050513          	addi	a0,a0,1024 # 4005f0 <test_4_data>
  4001f8:	00052007          	flw	ft0,0(a0)
  4001fc:	00452087          	flw	ft1,4(a0)
  400200:	00852107          	flw	ft2,8(a0)
  400204:	00c52683          	lw	a3,12(a0)
  400208:	c0001553          	fcvt.w.s	a0,ft0,rtz
  40020c:	001015f3          	fsflags	a1,zero
  400210:	00100613          	li	a2,1
  400214:	36d51463          	bne	a0,a3,40057c <fail>
  400218:	36c59263          	bne	a1,a2,40057c <fail>

0040021c <test_5>:
  40021c:	00500193          	li	gp,5
  400220:	00000517          	auipc	a0,0x0
  400224:	3e050513          	addi	a0,a0,992 # 400600 <test_5_data>
  400228:	00052007          	flw	ft0,0(a0)
  40022c:	00452087          	flw	ft1,4(a0)
  400230:	00852107          	flw	ft2,8(a0)
  400234:	00c52683          	lw	a3,12(a0)
  400238:	c0001553          	fcvt.w.s	a0,ft0,rtz
  40023c:	001015f3          	fsflags	a1,zero
  400240:	00100613          	li	a2,1
  400244:	32d51c63          	bne	a0,a3,40057c <fail>
  400248:	32c59a63          	bne	a1,a2,40057c <fail>

0040024c <test_6>:
  40024c:	00600193          	li	gp,6
  400250:	00000517          	auipc	a0,0x0
  400254:	3c050513          	addi	a0,a0,960 # 400610 <test_6_data>
  400258:	00052007          	flw	ft0,0(a0)
  40025c:	00452087          	flw	ft1,4(a0)
  400260:	00852107          	flw	ft2,8(a0)
  400264:	00c52683          	lw	a3,12(a0)
  400268:	c0001553          	fcvt.w.s	a0,ft0,rtz
  40026c:	001015f3          	fsflags	a1,zero
  400270:	00000613          	li	a2,0
  400274:	30d51463          	bne	a0,a3,40057c <fail>
  400278:	30c59263          	bne	a1,a2,40057c <fail>

0040027c <test_7>:
  40027c:	00700193          	li	gp,7
  400280:	00000517          	auipc	a0,0x0
  400284:	3a050513          	addi	a0,a0,928 # 400620 <test_7_data>
  400288:	00052007          	flw	ft0,0(a0)
  40028c:	00452087          	flw	ft1,4(a0)
  400290:	00852107          	flw	ft2,8(a0)
  400294:	00c52683          	lw	a3,12(a0)
  400298:	c0001553          	fcvt.w.s	a0,ft0,rtz
  40029c:	001015f3          	fsflags	a1,zero
  4002a0:	00100613          	li	a2,1
  4002a4:	2cd51c63          	bne	a0,a3,40057c <fail>
  4002a8:	2cc59a63          	bne	a1,a2,40057c <fail>

004002ac <test_8>:
  4002ac:	00800193          	li	gp,8
  4002b0:	00000517          	auipc	a0,0x0
  4002b4:	38050513          	addi	a0,a0,896 # 400630 <test_8_data>
  4002b8:	00052007          	flw	ft0,0(a0)
  4002bc:	00452087          	flw	ft1,4(a0)
  4002c0:	00852107          	flw	ft2,8(a0)
  4002c4:	00c52683          	lw	a3,12(a0)
  4002c8:	c0001553          	fcvt.w.s	a0,ft0,rtz
  4002cc:	001015f3          	fsflags	a1,zero
  4002d0:	01000613          	li	a2,16
  4002d4:	2ad51463          	bne	a0,a3,40057c <fail>
  4002d8:	2ac59263          	bne	a1,a2,40057c <fail>

004002dc <test_9>:
  4002dc:	00900193          	li	gp,9
  4002e0:	00000517          	auipc	a0,0x0
  4002e4:	36050513          	addi	a0,a0,864 # 400640 <test_9_data>
  4002e8:	00052007          	flw	ft0,0(a0)
  4002ec:	00452087          	flw	ft1,4(a0)
  4002f0:	00852107          	flw	ft2,8(a0)
  4002f4:	00c52683          	lw	a3,12(a0)
  4002f8:	c0001553          	fcvt.w.s	a0,ft0,rtz
  4002fc:	001015f3          	fsflags	a1,zero
  400300:	01000613          	li	a2,16
  400304:	26d51c63          	bne	a0,a3,40057c <fail>
  400308:	26c59a63          	bne	a1,a2,40057c <fail>

0040030c <test_12>:
  40030c:	00c00193          	li	gp,12
  400310:	00000517          	auipc	a0,0x0
  400314:	34050513          	addi	a0,a0,832 # 400650 <test_12_data>
  400318:	00052007          	flw	ft0,0(a0)
  40031c:	00452087          	flw	ft1,4(a0)
  400320:	00852107          	flw	ft2,8(a0)
  400324:	00c52683          	lw	a3,12(a0)
  400328:	c0101553          	fcvt.wu.s	a0,ft0,rtz
  40032c:	001015f3          	fsflags	a1,zero
  400330:	01000613          	li	a2,16
  400334:	24d51463          	bne	a0,a3,40057c <fail>
  400338:	24c59263          	bne	a1,a2,40057c <fail>

0040033c <test_13>:
  40033c:	00d00193          	li	gp,13
  400340:	00000517          	auipc	a0,0x0
  400344:	32050513          	addi	a0,a0,800 # 400660 <test_13_data>
  400348:	00052007          	flw	ft0,0(a0)
  40034c:	00452087          	flw	ft1,4(a0)
  400350:	00852107          	flw	ft2,8(a0)
  400354:	00c52683          	lw	a3,12(a0)
  400358:	c0101553          	fcvt.wu.s	a0,ft0,rtz
  40035c:	001015f3          	fsflags	a1,zero
  400360:	01000613          	li	a2,16
  400364:	20d51c63          	bne	a0,a3,40057c <fail>
  400368:	20c59a63          	bne	a1,a2,40057c <fail>

0040036c <test_14>:
  40036c:	00e00193          	li	gp,14
  400370:	00000517          	auipc	a0,0x0
  400374:	30050513          	addi	a0,a0,768 # 400670 <test_14_data>
  400378:	00052007          	flw	ft0,0(a0)
  40037c:	00452087          	flw	ft1,4(a0)
  400380:	00852107          	flw	ft2,8(a0)
  400384:	00c52683          	lw	a3,12(a0)
  400388:	c0101553          	fcvt.wu.s	a0,ft0,rtz
  40038c:	001015f3          	fsflags	a1,zero
  400390:	00100613          	li	a2,1
  400394:	1ed51463          	bne	a0,a3,40057c <fail>
  400398:	1ec59263          	bne	a1,a2,40057c <fail>

0040039c <test_15>:
  40039c:	00f00193          	li	gp,15
  4003a0:	00000517          	auipc	a0,0x0
  4003a4:	2e050513          	addi	a0,a0,736 # 400680 <test_15_data>
  4003a8:	00052007          	flw	ft0,0(a0)
  4003ac:	00452087          	flw	ft1,4(a0)
  4003b0:	00852107          	flw	ft2,8(a0)
  4003b4:	00c52683          	lw	a3,12(a0)
  4003b8:	c0101553          	fcvt.wu.s	a0,ft0,rtz
  4003bc:	001015f3          	fsflags	a1,zero
  4003c0:	00100613          	li	a2,1
  4003c4:	1ad51c63          	bne	a0,a3,40057c <fail>
  4003c8:	1ac59a63          	bne	a1,a2,40057c <fail>

004003cc <test_16>:
  4003cc:	01000193          	li	gp,16
  4003d0:	00000517          	auipc	a0,0x0
  4003d4:	2c050513          	addi	a0,a0,704 # 400690 <test_16_data>
  4003d8:	00052007          	flw	ft0,0(a0)
  4003dc:	00452087          	flw	ft1,4(a0)
  4003e0:	00852107          	flw	ft2,8(a0)
  4003e4:	00c52683          	lw	a3,12(a0)
  4003e8:	c0101553          	fcvt.wu.s	a0,ft0,rtz
  4003ec:	001015f3          	fsflags	a1,zero
  4003f0:	00000613          	li	a2,0
  4003f4:	18d51463          	bne	a0,a3,40057c <fail>
  4003f8:	18c59263          	bne	a1,a2,40057c <fail>

004003fc <test_17>:
  4003fc:	01100193          	li	gp,17
  400400:	00000517          	auipc	a0,0x0
  400404:	2a050513          	addi	a0,a0,672 # 4006a0 <test_17_data>
  400408:	00052007          	flw	ft0,0(a0)
  40040c:	00452087          	flw	ft1,4(a0)
  400410:	00852107          	flw	ft2,8(a0)
  400414:	00c52683          	lw	a3,12(a0)
  400418:	c0101553          	fcvt.wu.s	a0,ft0,rtz
  40041c:	001015f3          	fsflags	a1,zero
  400420:	00100613          	li	a2,1
  400424:	14d51c63          	bne	a0,a3,40057c <fail>
  400428:	14c59a63          	bne	a1,a2,40057c <fail>

0040042c <test_18>:
  40042c:	01200193          	li	gp,18
  400430:	00000517          	auipc	a0,0x0
  400434:	28050513          	addi	a0,a0,640 # 4006b0 <test_18_data>
  400438:	00052007          	flw	ft0,0(a0)
  40043c:	00452087          	flw	ft1,4(a0)
  400440:	00852107          	flw	ft2,8(a0)
  400444:	00c52683          	lw	a3,12(a0)
  400448:	c0101553          	fcvt.wu.s	a0,ft0,rtz
  40044c:	001015f3          	fsflags	a1,zero
  400450:	01000613          	li	a2,16
  400454:	12d51463          	bne	a0,a3,40057c <fail>
  400458:	12c59263          	bne	a1,a2,40057c <fail>

0040045c <test_19>:
  40045c:	01300193          	li	gp,19
  400460:	00000517          	auipc	a0,0x0
  400464:	26050513          	addi	a0,a0,608 # 4006c0 <test_19_data>
  400468:	00052007          	flw	ft0,0(a0)
  40046c:	00452087          	flw	ft1,4(a0)
  400470:	00852107          	flw	ft2,8(a0)
  400474:	00c52683          	lw	a3,12(a0)
  400478:	c0101553          	fcvt.wu.s	a0,ft0,rtz
  40047c:	001015f3          	fsflags	a1,zero
  400480:	00000613          	li	a2,0
  400484:	0ed51c63          	bne	a0,a3,40057c <fail>
  400488:	0ec59a63          	bne	a1,a2,40057c <fail>

0040048c <test_42>:
  40048c:	00000097          	auipc	ra,0x0
  400490:	24408093          	addi	ra,ra,580 # 4006d0 <begin_signature>
  400494:	0000a087          	flw	ft1,0(ra)
  400498:	c000f0d3          	fcvt.w.s	ra,ft1
  40049c:	800003b7          	lui	t2,0x80000
  4004a0:	fff38393          	addi	t2,t2,-1 # 7fffffff <_end+0x7fbff8ff>
  4004a4:	02a00193          	li	gp,42
  4004a8:	0c709a63          	bne	ra,t2,40057c <fail>

004004ac <test_44>:
  4004ac:	00000097          	auipc	ra,0x0
  4004b0:	22408093          	addi	ra,ra,548 # 4006d0 <begin_signature>
  4004b4:	0080a087          	flw	ft1,8(ra)
  4004b8:	c000f0d3          	fcvt.w.s	ra,ft1
  4004bc:	800003b7          	lui	t2,0x80000
  4004c0:	02c00193          	li	gp,44
  4004c4:	0a709c63          	bne	ra,t2,40057c <fail>

004004c8 <test_52>:
  4004c8:	00000097          	auipc	ra,0x0
  4004cc:	20808093          	addi	ra,ra,520 # 4006d0 <begin_signature>
  4004d0:	0040a087          	flw	ft1,4(ra)
  4004d4:	c000f0d3          	fcvt.w.s	ra,ft1
  4004d8:	800003b7          	lui	t2,0x80000
  4004dc:	fff38393          	addi	t2,t2,-1 # 7fffffff <_end+0x7fbff8ff>
  4004e0:	03400193          	li	gp,52
  4004e4:	08709c63          	bne	ra,t2,40057c <fail>

004004e8 <test_54>:
  4004e8:	00000097          	auipc	ra,0x0
  4004ec:	1e808093          	addi	ra,ra,488 # 4006d0 <begin_signature>
  4004f0:	00c0a087          	flw	ft1,12(ra)
  4004f4:	c000f0d3          	fcvt.w.s	ra,ft1
  4004f8:	800003b7          	lui	t2,0x80000
  4004fc:	fff38393          	addi	t2,t2,-1 # 7fffffff <_end+0x7fbff8ff>
  400500:	03600193          	li	gp,54
  400504:	06709c63          	bne	ra,t2,40057c <fail>

00400508 <test_62>:
  400508:	00000097          	auipc	ra,0x0
  40050c:	1c808093          	addi	ra,ra,456 # 4006d0 <begin_signature>
  400510:	0000a087          	flw	ft1,0(ra)
  400514:	c010f0d3          	fcvt.wu.s	ra,ft1
  400518:	fff00393          	li	t2,-1
  40051c:	03e00193          	li	gp,62
  400520:	04709e63          	bne	ra,t2,40057c <fail>

00400524 <test_63>:
  400524:	00000097          	auipc	ra,0x0
  400528:	1ac08093          	addi	ra,ra,428 # 4006d0 <begin_signature>
  40052c:	0040a087          	flw	ft1,4(ra)
  400530:	c010f0d3          	fcvt.wu.s	ra,ft1
  400534:	fff00393          	li	t2,-1
  400538:	03f00193          	li	gp,63
  40053c:	04709063          	bne	ra,t2,40057c <fail>

00400540 <test_64>:
  400540:	00000097          	auipc	ra,0x0
  400544:	19008093          	addi	ra,ra,400 # 4006d0 <begin_signature>
  400548:	0080a087          	flw	ft1,8(ra)
  40054c:	c010f0d3          	fcvt.wu.s	ra,ft1
  400550:	00000393          	li	t2,0
  400554:	04000193          	li	gp,64
  400558:	02709263          	bne	ra,t2,40057c <fail>

0040055c <test_65>:
  40055c:	00000097          	auipc	ra,0x0
  400560:	17408093          	addi	ra,ra,372 # 4006d0 <begin_signature>
  400564:	00c0a087          	flw	ft1,12(ra)
  400568:	c010f0d3          	fcvt.wu.s	ra,ft1
  40056c:	fff00393          	li	t2,-1
  400570:	04100193          	li	gp,65
  400574:	00709463          	bne	ra,t2,40057c <fail>
  400578:	02301463          	bne	zero,gp,4005a0 <pass>

0040057c <fail>:
  40057c:	0ff0000f          	fence
  400580:	00018063          	beqz	gp,400580 <fail+0x4>
  400584:	00119193          	slli	gp,gp,0x1
  400588:	0011e193          	ori	gp,gp,1
  40058c:	05d00893          	li	a7,93
  400590:	00018513          	mv	a0,gp
  400594:	cda4d073          	csrwi	0xcda,9
  400598:	cd90e073          	csrsi	0xcd9,1
  40059c:	00000073          	ecall

004005a0 <pass>:
  4005a0:	0ff0000f          	fence
  4005a4:	00100193          	li	gp,1
  4005a8:	05d00893          	li	a7,93
  4005ac:	00000513          	li	a0,0
  4005b0:	cda2d073          	csrwi	0xcda,5
  4005b4:	00000073          	ecall
  4005b8:	c0001073          	unimp
	...

セクション .tohost の逆アセンブル:

00300000 <tohost>:
	...

00300040 <fromhost>:
	...

セクション .data の逆アセンブル:

004005d0 <test_2_data>:
  4005d0:	cccd                	beqz	s1,40068a <test_15_data+0xa>
  4005d2:	bf8c                	fsd	fa1,56(a5)
	...
  4005dc:	ffff                	0xffff
  4005de:	ffff                	0xffff

004005e0 <test_3_data>:
  4005e0:	0000                	unimp
  4005e2:	bf80                	fsd	fs0,56(a5)
	...
  4005ec:	ffff                	0xffff
  4005ee:	ffff                	0xffff

004005f0 <test_4_data>:
  4005f0:	6666                	flw	fa2,88(sp)
  4005f2:	bf66                	fsd	fs9,440(sp)
	...

00400600 <test_5_data>:
  400600:	6666                	flw	fa2,88(sp)
  400602:	3f66                	fld	ft10,120(sp)
	...

00400610 <test_6_data>:
  400610:	0000                	unimp
  400612:	3f80                	fld	fs0,56(a5)
	...
  40061c:	0001                	nop
	...

00400620 <test_7_data>:
  400620:	cccd                	beqz	s1,4006da <begin_signature+0xa>
  400622:	3f8c                	fld	fa1,56(a5)
	...
  40062c:	0001                	nop
	...

00400630 <test_8_data>:
  400630:	d05e                	sw	s7,32(sp)
  400632:	cf32                	sw	a2,156(sp)
	...
  40063c:	0000                	unimp
  40063e:	8000                	0x8000

00400640 <test_9_data>:
  400640:	d05e                	sw	s7,32(sp)
  400642:	4f32                	lw	t5,12(sp)
	...
  40064c:	ffff                	0xffff
  40064e:	7fff                	0x7fff

00400650 <test_12_data>:
  400650:	0000                	unimp
  400652:	c040                	sw	s0,4(s0)
	...

00400660 <test_13_data>:
  400660:	0000                	unimp
  400662:	bf80                	fsd	fs0,56(a5)
	...

00400670 <test_14_data>:
  400670:	6666                	flw	fa2,88(sp)
  400672:	bf66                	fsd	fs9,440(sp)
	...

00400680 <test_15_data>:
  400680:	6666                	flw	fa2,88(sp)
  400682:	3f66                	fld	ft10,120(sp)
	...

00400690 <test_16_data>:
  400690:	0000                	unimp
  400692:	3f80                	fld	fs0,56(a5)
	...
  40069c:	0001                	nop
	...

004006a0 <test_17_data>:
  4006a0:	cccd                	beqz	s1,40075a <_end+0x5a>
  4006a2:	3f8c                	fld	fa1,56(a5)
	...
  4006ac:	0001                	nop
	...

004006b0 <test_18_data>:
  4006b0:	d05e                	sw	s7,32(sp)
  4006b2:	cf32                	sw	a2,156(sp)
	...

004006c0 <test_19_data>:
  4006c0:	d05e                	sw	s7,32(sp)
  4006c2:	4f32                	lw	t5,12(sp)
	...
  4006cc:	5e00                	lw	s0,56(a2)
  4006ce:	b2d0                	fsd	fa2,160(a3)

004006d0 <begin_signature>:
  4006d0:	ffff                	0xffff
  4006d2:	ffff                	0xffff
  4006d4:	ffff                	0xffff
  4006d6:	7fff                	0x7fff
  4006d8:	0000                	unimp
  4006da:	ff80                	fsw	fs0,56(a5)
  4006dc:	0000                	unimp
  4006de:	7f80                	flw	fs0,56(a5)

004006e0 <tdat_d>:
  4006e0:	ffff                	0xffff
  4006e2:	ffff                	0xffff
  4006e4:	ffff                	0xffff
  4006e6:	ffff                	0xffff
  4006e8:	ffff                	0xffff
  4006ea:	ffff                	0xffff
  4006ec:	ffff                	0xffff
  4006ee:	7fff                	0x7fff
  4006f0:	0000                	unimp
  4006f2:	0000                	unimp
  4006f4:	0000                	unimp
  4006f6:	fff0                	fsw	fa2,124(a5)
  4006f8:	0000                	unimp
  4006fa:	0000                	unimp
  4006fc:	0000                	unimp
  4006fe:	7ff0                	flw	fa2,124(a5)

セクション .riscv.attributes の逆アセンブル:

00000000 <.riscv.attributes>:
   0:	2241                	jal	180 <tohost-0x2ffe80>
   2:	0000                	unimp
   4:	7200                	flw	fs0,32(a2)
   6:	7369                	lui	t1,0xffffa
   8:	01007663          	bgeu	zero,a6,14 <tohost-0x2fffec>
   c:	0018                	0x18
   e:	0000                	unimp
  10:	7205                	lui	tp,0xfffe1
  12:	3376                	fld	ft6,376(sp)
  14:	6932                	flw	fs2,12(sp)
  16:	7032                	flw	ft0,44(sp)
  18:	5f30                	lw	a2,120(a4)
  1a:	3266                	fld	ft4,120(sp)
  1c:	3070                	fld	fa2,224(s0)
  1e:	0800                	addi	s0,sp,16
  20:	0a01                	addi	s4,s4,0
  22:	0b              	Address 0x0000000000000022 is out of bounds.


セクション .debug_line の逆アセンブル:

00000000 <.debug_line>:
   0:	00e2                	slli	ra,ra,0x18
   2:	0000                	unimp
   4:	0005                	c.nop	1
   6:	0004                	0x4
   8:	002e                	c.slli	zero,0xb
   a:	0000                	unimp
   c:	0101                	addi	sp,sp,0
   e:	fb01                	bnez	a4,ffffff1e <_end+0xffbff81e>
  10:	0d0e                	slli	s10,s10,0x3
  12:	0100                	addi	s0,sp,128
  14:	0101                	addi	sp,sp,0
  16:	0001                	nop
  18:	0000                	unimp
  1a:	0001                	nop
  1c:	0100                	addi	s0,sp,128
  1e:	0101                	addi	sp,sp,0
  20:	021f 0000 0000      	0x21f
  26:	0000                	unimp
  28:	0000                	unimp
  2a:	0102                	c.slli64	sp
  2c:	021f 020f 000e      	0xe020f021f
  32:	0000                	unimp
  34:	0e00                	addi	s0,sp,784
  36:	0000                	unimp
  38:	0100                	addi	s0,sp,128
  3a:	0500                	addi	s0,sp,640
  3c:	0002                	c.slli64	zero
  3e:	4000                	lw	s0,0(s0)
  40:	0300                	addi	s0,sp,384
  42:	010d                	addi	sp,sp,3
  44:	8c090603          	lb	a2,-1856(s2)
  48:	0101                	addi	sp,sp,0
  4a:	30090103          	lb	sp,768(s2)
  4e:	0100                	addi	s0,sp,128
  50:	30090103          	lb	sp,768(s2)
  54:	0100                	addi	s0,sp,128
  56:	30090103          	lb	sp,768(s2)
  5a:	0100                	addi	s0,sp,128
  5c:	30090103          	lb	sp,768(s2)
  60:	0100                	addi	s0,sp,128
  62:	30090103          	lb	sp,768(s2)
  66:	0100                	addi	s0,sp,128
  68:	30090103          	lb	sp,768(s2)
  6c:	0100                	addi	s0,sp,128
  6e:	30090103          	lb	sp,768(s2)
  72:	0100                	addi	s0,sp,128
  74:	30090203          	lb	tp,768(s2)
  78:	0100                	addi	s0,sp,128
  7a:	30090103          	lb	sp,768(s2)
  7e:	0100                	addi	s0,sp,128
  80:	30090103          	lb	sp,768(s2)
  84:	0100                	addi	s0,sp,128
  86:	30090103          	lb	sp,768(s2)
  8a:	0100                	addi	s0,sp,128
  8c:	30090103          	lb	sp,768(s2)
  90:	0100                	addi	s0,sp,128
  92:	30090103          	lb	sp,768(s2)
  96:	0100                	addi	s0,sp,128
  98:	30090103          	lb	sp,768(s2)
  9c:	0100                	addi	s0,sp,128
  9e:	30090103          	lb	sp,768(s2)
  a2:	0100                	addi	s0,sp,128
  a4:	30091403          	lh	s0,768(s2)
  a8:	0100                	addi	s0,sp,128
  aa:	20090103          	lb	sp,512(s2)
  ae:	0100                	addi	s0,sp,128
  b0:	1c090703          	lb	a4,448(s2)
  b4:	0100                	addi	s0,sp,128
  b6:	20090103          	lb	sp,512(s2)
  ba:	0100                	addi	s0,sp,128
  bc:	20090703          	lb	a4,512(s2)
  c0:	0100                	addi	s0,sp,128
  c2:	1c090103          	lb	sp,448(s2)
  c6:	0100                	addi	s0,sp,128
  c8:	1c090103          	lb	sp,448(s2)
  cc:	0100                	addi	s0,sp,128
  ce:	1c090103          	lb	sp,448(s2)
  d2:	0100                	addi	s0,sp,128
  d4:	1c090803          	lb	a6,448(s2)
  d8:	0100                	addi	s0,sp,128
  da:	40090203          	lb	tp,1024(s2)
  de:	0100                	addi	s0,sp,128
  e0:	0409                	addi	s0,s0,2
  e2:	0000                	unimp
  e4:	0101                	addi	sp,sp,0

セクション .debug_line_str の逆アセンブル:

00000000 <.debug_line_str>:
   0:	2f637273          	csrrci	tp,0x2f6,6
   4:	2e2e                	fld	ft8,200(sp)
   6:	3676722f          	0x3676722f
   a:	7534                	flw	fa3,104(a0)
   c:	0066                	c.slli	zero,0x19
   e:	6366                	flw	ft6,88(sp)
  10:	7476                	flw	fs0,124(sp)
  12:	775f 532e       	0x532e775f

セクション .debug_info の逆アセンブル:

00000000 <.debug_info>:
   0:	0021                	c.nop	8
   2:	0000                	unimp
   4:	0005                	c.nop	1
   6:	0401                	addi	s0,s0,0
   8:	0000                	unimp
   a:	0000                	unimp
   c:	0001                	nop
   e:	0000                	unimp
  10:	0000                	unimp
  12:	4000                	lw	s0,0(s0)
  14:	f800                	fsw	fs0,48(s0)
  16:	0000000b          	0xb
  1a:	0900                	addi	s0,sp,144
  1c:	0000                	unimp
  1e:	5600                	lw	s0,40(a2)
  20:	0000                	unimp
  22:	0100                	addi	s0,sp,128
  24:	80              	Address 0x0000000000000024 is out of bounds.


セクション .debug_abbrev の逆アセンブル:

00000000 <.debug_abbrev>:
   0:	1101                	addi	sp,sp,-32
   2:	1000                	addi	s0,sp,32
   4:	12011117          	auipc	sp,0x12011
   8:	1b0e030f          	0x1b0e030f
   c:	250e                	fld	fa0,192(sp)
   e:	130e                	slli	t1,t1,0x23
  10:	0005                	c.nop	1
	...

セクション .debug_aranges の逆アセンブル:

00000000 <.debug_aranges>:
   0:	001c                	0x1c
   2:	0000                	unimp
   4:	0002                	c.slli64	zero
   6:	0000                	unimp
   8:	0000                	unimp
   a:	0004                	0x4
   c:	0000                	unimp
   e:	0000                	unimp
  10:	0000                	unimp
  12:	0040                	addi	s0,sp,4
  14:	05bc                	addi	a5,sp,712
	...

セクション .debug_str の逆アセンブル:

00000000 <.debug_str>:
   0:	6366                	flw	ft6,88(sp)
   2:	7476                	flw	fs0,124(sp)
   4:	775f 532e 2f00      	0x2f00532e775f
   a:	6f68                	flw	fa0,92(a4)
   c:	656d                	lui	a0,0x1b
   e:	6d61682f          	0x6d61682f
  12:	6461                	lui	s0,0x18
  14:	2f61                	jal	7ac <tohost-0x2ff854>
  16:	6972                	flw	fs2,28(sp)
  18:	762d6373          	csrrsi	t1,0x762,26
  1c:	675f 7469 722f      	0x722f7469675f
  22:	7369                	lui	t1,0xffffa
  24:	742d7663          	bgeu	s10,sp,770 <tohost-0x2ff890>
  28:	7365                	lui	t1,0xffff9
  2a:	7374                	flw	fa3,100(a4)
  2c:	435f 722f 7369      	0x7369722f435f
  32:	742d7663          	bgeu	s10,sp,77e <tohost-0x2ff882>
  36:	7365                	lui	t1,0xffff9
  38:	7374                	flw	fa3,100(a4)
  3a:	7369722f          	0x7369722f
  3e:	742d7663          	bgeu	s10,sp,78a <tohost-0x2ff876>
  42:	7365                	lui	t1,0xffff9
  44:	2d74                	fld	fa3,216(a0)
  46:	74697573          	csrrci	a0,0x746,18
  4a:	2f65                	jal	802 <tohost-0x2ff7fe>
  4c:	7672                	flw	fa2,60(sp)
  4e:	5f693233          	0x5f693233
  52:	2f6d                	jal	80c <tohost-0x2ff7f4>
  54:	0046                	c.slli	zero,0x11
  56:	20554e47          	fmsub.s	ft8,fa0,ft5,ft4,rmm
  5a:	5341                	li	t1,-16
  5c:	3220                	fld	fs0,96(a2)
  5e:	332e                	fld	ft6,232(sp)
  60:	2e36                	fld	ft8,328(sp)
  62:	0031                	c.nop	12
