
/home/hamada/risc-v_git/riscv-tests_C/riscv-tests/work/rv32i_m/F/fmadd.elf:     ファイル形式 elf32-littleriscv


セクション .text.init の逆アセンブル:

00400000 <_start>:
  400000:	04c0006f          	j	40004c <reset_vector>

00400004 <trap_vector>:
  400004:	34202f73          	csrr	t5,mcause
  400008:	00800f93          	li	t6,8
  40000c:	03ff0a63          	beq	t5,t6,400040 <write_tohost>
  400010:	00900f93          	li	t6,9
  400014:	03ff0663          	beq	t5,t6,400040 <write_tohost>
  400018:	00b00f93          	li	t6,11
  40001c:	03ff0263          	beq	t5,t6,400040 <write_tohost>
  400020:	ffc00f17          	auipc	t5,0xffc00
  400024:	fe0f0f13          	addi	t5,t5,-32 # 0 <tohost-0x300000>
  400028:	000f0463          	beqz	t5,400030 <trap_vector+0x2c>
  40002c:	000f0067          	jr	t5
  400030:	34202f73          	csrr	t5,mcause
  400034:	000f5463          	bgez	t5,40003c <handle_exception>
  400038:	0040006f          	j	40003c <handle_exception>

0040003c <handle_exception>:
  40003c:	5391e193          	ori	gp,gp,1337

00400040 <write_tohost>:
  400040:	fff00f17          	auipc	t5,0xfff00
  400044:	fc3f2023          	sw	gp,-64(t5) # 300000 <tohost>
  400048:	ff9ff06f          	j	400040 <write_tohost>

0040004c <reset_vector>:
  40004c:	00000093          	li	ra,0
  400050:	00000113          	li	sp,0
  400054:	00000193          	li	gp,0
  400058:	00000213          	li	tp,0
  40005c:	00000293          	li	t0,0
  400060:	00000313          	li	t1,0
  400064:	00000393          	li	t2,0
  400068:	00000413          	li	s0,0
  40006c:	00000493          	li	s1,0
  400070:	00000513          	li	a0,0
  400074:	00000593          	li	a1,0
  400078:	00000613          	li	a2,0
  40007c:	00000693          	li	a3,0
  400080:	00000713          	li	a4,0
  400084:	00000793          	li	a5,0
  400088:	00000813          	li	a6,0
  40008c:	00000893          	li	a7,0
  400090:	00000913          	li	s2,0
  400094:	00000993          	li	s3,0
  400098:	00000a13          	li	s4,0
  40009c:	00000a93          	li	s5,0
  4000a0:	00000b13          	li	s6,0
  4000a4:	00000b93          	li	s7,0
  4000a8:	00000c13          	li	s8,0
  4000ac:	00000c93          	li	s9,0
  4000b0:	00000d13          	li	s10,0
  4000b4:	00000d93          	li	s11,0
  4000b8:	00000e13          	li	t3,0
  4000bc:	00000e93          	li	t4,0
  4000c0:	00000f13          	li	t5,0
  4000c4:	00000f93          	li	t6,0
  4000c8:	f1402573          	csrr	a0,mhartid
  4000cc:	00051063          	bnez	a0,4000cc <reset_vector+0x80>
  4000d0:	00000297          	auipc	t0,0x0
  4000d4:	01028293          	addi	t0,t0,16 # 4000e0 <reset_vector+0x94>
  4000d8:	30529073          	csrw	mtvec,t0
  4000dc:	18005073          	csrwi	satp,0
  4000e0:	00000297          	auipc	t0,0x0
  4000e4:	02028293          	addi	t0,t0,32 # 400100 <reset_vector+0xb4>
  4000e8:	30529073          	csrw	mtvec,t0
  4000ec:	800002b7          	lui	t0,0x80000
  4000f0:	fff28293          	addi	t0,t0,-1 # 7fffffff <_end+0x7fbffaef>
  4000f4:	3b029073          	csrw	pmpaddr0,t0
  4000f8:	01f00293          	li	t0,31
  4000fc:	3a029073          	csrw	pmpcfg0,t0
  400100:	30405073          	csrwi	mie,0
  400104:	00000297          	auipc	t0,0x0
  400108:	01428293          	addi	t0,t0,20 # 400118 <reset_vector+0xcc>
  40010c:	30529073          	csrw	mtvec,t0
  400110:	30205073          	csrwi	medeleg,0
  400114:	30305073          	csrwi	mideleg,0
  400118:	00000193          	li	gp,0
  40011c:	00000297          	auipc	t0,0x0
  400120:	ee828293          	addi	t0,t0,-280 # 400004 <trap_vector>
  400124:	30529073          	csrw	mtvec,t0
  400128:	00100513          	li	a0,1
  40012c:	01f51513          	slli	a0,a0,0x1f
  400130:	00054e63          	bltz	a0,40014c <reset_vector+0x100>
  400134:	0ff0000f          	fence
  400138:	00100193          	li	gp,1
  40013c:	05d00893          	li	a7,93
  400140:	00000513          	li	a0,0
  400144:	cda2d073          	csrwi	0xcda,5
  400148:	00000073          	ecall
  40014c:	ffc00297          	auipc	t0,0xffc00
  400150:	eb428293          	addi	t0,t0,-332 # 0 <tohost-0x300000>
  400154:	00028a63          	beqz	t0,400168 <reset_vector+0x11c>
  400158:	10529073          	csrw	stvec,t0
  40015c:	0000b2b7          	lui	t0,0xb
  400160:	10928293          	addi	t0,t0,265 # b109 <tohost-0x2f4ef7>
  400164:	30229073          	csrw	medeleg,t0
  400168:	30005073          	csrwi	mstatus,0
  40016c:	00002537          	lui	a0,0x2
  400170:	30052073          	csrs	mstatus,a0
  400174:	00305073          	csrwi	fcsr,0
  400178:	00000297          	auipc	t0,0x0
  40017c:	01428293          	addi	t0,t0,20 # 40018c <test_2>
  400180:	34129073          	csrw	mepc,t0
  400184:	f1402573          	csrr	a0,mhartid
  400188:	30200073          	mret

0040018c <test_2>:
  40018c:	00200193          	li	gp,2
  400190:	00000517          	auipc	a0,0x0
  400194:	2c050513          	addi	a0,a0,704 # 400450 <test_2_data>
  400198:	00052007          	flw	ft0,0(a0)
  40019c:	00452087          	flw	ft1,4(a0)
  4001a0:	00852107          	flw	ft2,8(a0)
  4001a4:	00c52683          	lw	a3,12(a0)
  4001a8:	101071c3          	fmadd.s	ft3,ft0,ft1,ft2
  4001ac:	e0018553          	fmv.x.w	a0,ft3
  4001b0:	001015f3          	fsflags	a1,zero
  4001b4:	00000613          	li	a2,0
  4001b8:	24d51463          	bne	a0,a3,400400 <fail>
  4001bc:	24c59263          	bne	a1,a2,400400 <fail>

004001c0 <test_3>:
  4001c0:	00300193          	li	gp,3
  4001c4:	00000517          	auipc	a0,0x0
  4001c8:	29c50513          	addi	a0,a0,668 # 400460 <test_3_data>
  4001cc:	00052007          	flw	ft0,0(a0)
  4001d0:	00452087          	flw	ft1,4(a0)
  4001d4:	00852107          	flw	ft2,8(a0)
  4001d8:	00c52683          	lw	a3,12(a0)
  4001dc:	101071c3          	fmadd.s	ft3,ft0,ft1,ft2
  4001e0:	e0018553          	fmv.x.w	a0,ft3
  4001e4:	001015f3          	fsflags	a1,zero
  4001e8:	00100613          	li	a2,1
  4001ec:	20d51a63          	bne	a0,a3,400400 <fail>
  4001f0:	20c59863          	bne	a1,a2,400400 <fail>

004001f4 <test_4>:
  4001f4:	00400193          	li	gp,4
  4001f8:	00000517          	auipc	a0,0x0
  4001fc:	27850513          	addi	a0,a0,632 # 400470 <test_4_data>
  400200:	00052007          	flw	ft0,0(a0)
  400204:	00452087          	flw	ft1,4(a0)
  400208:	00852107          	flw	ft2,8(a0)
  40020c:	00c52683          	lw	a3,12(a0)
  400210:	101071c3          	fmadd.s	ft3,ft0,ft1,ft2
  400214:	e0018553          	fmv.x.w	a0,ft3
  400218:	001015f3          	fsflags	a1,zero
  40021c:	00000613          	li	a2,0
  400220:	1ed51063          	bne	a0,a3,400400 <fail>
  400224:	1cc59e63          	bne	a1,a2,400400 <fail>

00400228 <test_5>:
  400228:	00500193          	li	gp,5
  40022c:	00000517          	auipc	a0,0x0
  400230:	25450513          	addi	a0,a0,596 # 400480 <test_5_data>
  400234:	00052007          	flw	ft0,0(a0)
  400238:	00452087          	flw	ft1,4(a0)
  40023c:	00852107          	flw	ft2,8(a0)
  400240:	00c52683          	lw	a3,12(a0)
  400244:	101071cf          	fnmadd.s	ft3,ft0,ft1,ft2
  400248:	e0018553          	fmv.x.w	a0,ft3
  40024c:	001015f3          	fsflags	a1,zero
  400250:	00000613          	li	a2,0
  400254:	1ad51663          	bne	a0,a3,400400 <fail>
  400258:	1ac59463          	bne	a1,a2,400400 <fail>

0040025c <test_6>:
  40025c:	00600193          	li	gp,6
  400260:	00000517          	auipc	a0,0x0
  400264:	23050513          	addi	a0,a0,560 # 400490 <test_6_data>
  400268:	00052007          	flw	ft0,0(a0)
  40026c:	00452087          	flw	ft1,4(a0)
  400270:	00852107          	flw	ft2,8(a0)
  400274:	00c52683          	lw	a3,12(a0)
  400278:	101071cf          	fnmadd.s	ft3,ft0,ft1,ft2
  40027c:	e0018553          	fmv.x.w	a0,ft3
  400280:	001015f3          	fsflags	a1,zero
  400284:	00100613          	li	a2,1
  400288:	16d51c63          	bne	a0,a3,400400 <fail>
  40028c:	16c59a63          	bne	a1,a2,400400 <fail>

00400290 <test_7>:
  400290:	00700193          	li	gp,7
  400294:	00000517          	auipc	a0,0x0
  400298:	20c50513          	addi	a0,a0,524 # 4004a0 <test_7_data>
  40029c:	00052007          	flw	ft0,0(a0)
  4002a0:	00452087          	flw	ft1,4(a0)
  4002a4:	00852107          	flw	ft2,8(a0)
  4002a8:	00c52683          	lw	a3,12(a0)
  4002ac:	101071cf          	fnmadd.s	ft3,ft0,ft1,ft2
  4002b0:	e0018553          	fmv.x.w	a0,ft3
  4002b4:	001015f3          	fsflags	a1,zero
  4002b8:	00000613          	li	a2,0
  4002bc:	14d51263          	bne	a0,a3,400400 <fail>
  4002c0:	14c59063          	bne	a1,a2,400400 <fail>

004002c4 <test_8>:
  4002c4:	00800193          	li	gp,8
  4002c8:	00000517          	auipc	a0,0x0
  4002cc:	1e850513          	addi	a0,a0,488 # 4004b0 <test_8_data>
  4002d0:	00052007          	flw	ft0,0(a0)
  4002d4:	00452087          	flw	ft1,4(a0)
  4002d8:	00852107          	flw	ft2,8(a0)
  4002dc:	00c52683          	lw	a3,12(a0)
  4002e0:	101071c7          	fmsub.s	ft3,ft0,ft1,ft2
  4002e4:	e0018553          	fmv.x.w	a0,ft3
  4002e8:	001015f3          	fsflags	a1,zero
  4002ec:	00000613          	li	a2,0
  4002f0:	10d51863          	bne	a0,a3,400400 <fail>
  4002f4:	10c59663          	bne	a1,a2,400400 <fail>

004002f8 <test_9>:
  4002f8:	00900193          	li	gp,9
  4002fc:	00000517          	auipc	a0,0x0
  400300:	1c450513          	addi	a0,a0,452 # 4004c0 <test_9_data>
  400304:	00052007          	flw	ft0,0(a0)
  400308:	00452087          	flw	ft1,4(a0)
  40030c:	00852107          	flw	ft2,8(a0)
  400310:	00c52683          	lw	a3,12(a0)
  400314:	101071c7          	fmsub.s	ft3,ft0,ft1,ft2
  400318:	e0018553          	fmv.x.w	a0,ft3
  40031c:	001015f3          	fsflags	a1,zero
  400320:	00100613          	li	a2,1
  400324:	0cd51e63          	bne	a0,a3,400400 <fail>
  400328:	0cc59c63          	bne	a1,a2,400400 <fail>

0040032c <test_10>:
  40032c:	00a00193          	li	gp,10
  400330:	00000517          	auipc	a0,0x0
  400334:	1a050513          	addi	a0,a0,416 # 4004d0 <test_10_data>
  400338:	00052007          	flw	ft0,0(a0)
  40033c:	00452087          	flw	ft1,4(a0)
  400340:	00852107          	flw	ft2,8(a0)
  400344:	00c52683          	lw	a3,12(a0)
  400348:	101071c7          	fmsub.s	ft3,ft0,ft1,ft2
  40034c:	e0018553          	fmv.x.w	a0,ft3
  400350:	001015f3          	fsflags	a1,zero
  400354:	00000613          	li	a2,0
  400358:	0ad51463          	bne	a0,a3,400400 <fail>
  40035c:	0ac59263          	bne	a1,a2,400400 <fail>

00400360 <test_11>:
  400360:	00b00193          	li	gp,11
  400364:	00000517          	auipc	a0,0x0
  400368:	17c50513          	addi	a0,a0,380 # 4004e0 <test_11_data>
  40036c:	00052007          	flw	ft0,0(a0)
  400370:	00452087          	flw	ft1,4(a0)
  400374:	00852107          	flw	ft2,8(a0)
  400378:	00c52683          	lw	a3,12(a0)
  40037c:	101071cb          	fnmsub.s	ft3,ft0,ft1,ft2
  400380:	e0018553          	fmv.x.w	a0,ft3
  400384:	001015f3          	fsflags	a1,zero
  400388:	00000613          	li	a2,0
  40038c:	06d51a63          	bne	a0,a3,400400 <fail>
  400390:	06c59863          	bne	a1,a2,400400 <fail>

00400394 <test_12>:
  400394:	00c00193          	li	gp,12
  400398:	00000517          	auipc	a0,0x0
  40039c:	15850513          	addi	a0,a0,344 # 4004f0 <test_12_data>
  4003a0:	00052007          	flw	ft0,0(a0)
  4003a4:	00452087          	flw	ft1,4(a0)
  4003a8:	00852107          	flw	ft2,8(a0)
  4003ac:	00c52683          	lw	a3,12(a0)
  4003b0:	101071cb          	fnmsub.s	ft3,ft0,ft1,ft2
  4003b4:	e0018553          	fmv.x.w	a0,ft3
  4003b8:	001015f3          	fsflags	a1,zero
  4003bc:	00100613          	li	a2,1
  4003c0:	04d51063          	bne	a0,a3,400400 <fail>
  4003c4:	02c59e63          	bne	a1,a2,400400 <fail>

004003c8 <test_13>:
  4003c8:	00d00193          	li	gp,13
  4003cc:	00000517          	auipc	a0,0x0
  4003d0:	13450513          	addi	a0,a0,308 # 400500 <test_13_data>
  4003d4:	00052007          	flw	ft0,0(a0)
  4003d8:	00452087          	flw	ft1,4(a0)
  4003dc:	00852107          	flw	ft2,8(a0)
  4003e0:	00c52683          	lw	a3,12(a0)
  4003e4:	101071cb          	fnmsub.s	ft3,ft0,ft1,ft2
  4003e8:	e0018553          	fmv.x.w	a0,ft3
  4003ec:	001015f3          	fsflags	a1,zero
  4003f0:	00000613          	li	a2,0
  4003f4:	00d51663          	bne	a0,a3,400400 <fail>
  4003f8:	00c59463          	bne	a1,a2,400400 <fail>
  4003fc:	02301463          	bne	zero,gp,400424 <pass>

00400400 <fail>:
  400400:	0ff0000f          	fence
  400404:	00018063          	beqz	gp,400404 <fail+0x4>
  400408:	00119193          	slli	gp,gp,0x1
  40040c:	0011e193          	ori	gp,gp,1
  400410:	05d00893          	li	a7,93
  400414:	00018513          	mv	a0,gp
  400418:	cda4d073          	csrwi	0xcda,9
  40041c:	cd90e073          	csrsi	0xcd9,1
  400420:	00000073          	ecall

00400424 <pass>:
  400424:	0ff0000f          	fence
  400428:	00100193          	li	gp,1
  40042c:	05d00893          	li	a7,93
  400430:	00000513          	li	a0,0
  400434:	cda2d073          	csrwi	0xcda,5
  400438:	00000073          	ecall
  40043c:	c0001073          	unimp
  400440:	0000                	unimp
	...

セクション .tohost の逆アセンブル:

00300000 <tohost>:
	...

00300040 <fromhost>:
	...

セクション .data の逆アセンブル:

00400450 <test_2_data>:
  400450:	0000                	unimp
  400452:	3f80                	fld	fs0,56(a5)
  400454:	0000                	unimp
  400456:	4020                	lw	s0,64(s0)
  400458:	0000                	unimp
  40045a:	3f80                	fld	fs0,56(a5)
  40045c:	0000                	unimp
  40045e:	4060                	lw	s0,68(s0)

00400460 <test_3_data>:
  400460:	0000                	unimp
  400462:	bf80                	fsd	fs0,56(a5)
  400464:	c49a6333          	0xc49a6333
  400468:	cccd                	beqz	s1,400522 <_end+0x12>
  40046a:	3f8c                	fld	fa1,56(a5)
  40046c:	8666                	mv	a2,s9
  40046e:	449a                	lw	s1,132(sp)

00400470 <test_4_data>:
  400470:	0000                	unimp
  400472:	4000                	lw	s0,0(s0)
  400474:	0000                	unimp
  400476:	c0a0                	sw	s0,64(s1)
  400478:	0000                	unimp
  40047a:	c000                	sw	s0,0(s0)
  40047c:	0000                	unimp
  40047e:	c140                	sw	s0,4(a0)

00400480 <test_5_data>:
  400480:	0000                	unimp
  400482:	3f80                	fld	fs0,56(a5)
  400484:	0000                	unimp
  400486:	4020                	lw	s0,64(s0)
  400488:	0000                	unimp
  40048a:	3f80                	fld	fs0,56(a5)
  40048c:	0000                	unimp
  40048e:	c060                	sw	s0,68(s0)

00400490 <test_6_data>:
  400490:	0000                	unimp
  400492:	bf80                	fsd	fs0,56(a5)
  400494:	c49a6333          	0xc49a6333
  400498:	cccd                	beqz	s1,400552 <_end+0x42>
  40049a:	3f8c                	fld	fa1,56(a5)
  40049c:	8666                	mv	a2,s9
  40049e:	c49a                	sw	t1,72(sp)

004004a0 <test_7_data>:
  4004a0:	0000                	unimp
  4004a2:	4000                	lw	s0,0(s0)
  4004a4:	0000                	unimp
  4004a6:	c0a0                	sw	s0,64(s1)
  4004a8:	0000                	unimp
  4004aa:	c000                	sw	s0,0(s0)
  4004ac:	0000                	unimp
  4004ae:	4140                	lw	s0,4(a0)

004004b0 <test_8_data>:
  4004b0:	0000                	unimp
  4004b2:	3f80                	fld	fs0,56(a5)
  4004b4:	0000                	unimp
  4004b6:	4020                	lw	s0,64(s0)
  4004b8:	0000                	unimp
  4004ba:	3f80                	fld	fs0,56(a5)
  4004bc:	0000                	unimp
  4004be:	3fc0                	fld	fs0,184(a5)

004004c0 <test_9_data>:
  4004c0:	0000                	unimp
  4004c2:	bf80                	fsd	fs0,56(a5)
  4004c4:	c49a6333          	0xc49a6333
  4004c8:	cccd                	beqz	s1,400582 <_end+0x72>
  4004ca:	3f8c                	fld	fa1,56(a5)
  4004cc:	4000                	lw	s0,0(s0)
  4004ce:	449a                	lw	s1,132(sp)

004004d0 <test_10_data>:
  4004d0:	0000                	unimp
  4004d2:	4000                	lw	s0,0(s0)
  4004d4:	0000                	unimp
  4004d6:	c0a0                	sw	s0,64(s1)
  4004d8:	0000                	unimp
  4004da:	c000                	sw	s0,0(s0)
  4004dc:	0000                	unimp
  4004de:	c100                	sw	s0,0(a0)

004004e0 <test_11_data>:
  4004e0:	0000                	unimp
  4004e2:	3f80                	fld	fs0,56(a5)
  4004e4:	0000                	unimp
  4004e6:	4020                	lw	s0,64(s0)
  4004e8:	0000                	unimp
  4004ea:	3f80                	fld	fs0,56(a5)
  4004ec:	0000                	unimp
  4004ee:	bfc0                	fsd	fs0,184(a5)

004004f0 <test_12_data>:
  4004f0:	0000                	unimp
  4004f2:	bf80                	fsd	fs0,56(a5)
  4004f4:	c49a6333          	0xc49a6333
  4004f8:	cccd                	beqz	s1,4005b2 <_end+0xa2>
  4004fa:	3f8c                	fld	fa1,56(a5)
  4004fc:	4000                	lw	s0,0(s0)
  4004fe:	c49a                	sw	t1,72(sp)

00400500 <test_13_data>:
  400500:	0000                	unimp
  400502:	4000                	lw	s0,0(s0)
  400504:	0000                	unimp
  400506:	c0a0                	sw	s0,64(s1)
  400508:	0000                	unimp
  40050a:	c000                	sw	s0,0(s0)
  40050c:	0000                	unimp
  40050e:	4100                	lw	s0,0(a0)

セクション .riscv.attributes の逆アセンブル:

00000000 <.riscv.attributes>:
   0:	2241                	jal	180 <tohost-0x2ffe80>
   2:	0000                	unimp
   4:	7200                	flw	fs0,32(a2)
   6:	7369                	lui	t1,0xffffa
   8:	01007663          	bgeu	zero,a6,14 <tohost-0x2fffec>
   c:	0018                	0x18
   e:	0000                	unimp
  10:	7205                	lui	tp,0xfffe1
  12:	3376                	fld	ft6,376(sp)
  14:	6932                	flw	fs2,12(sp)
  16:	7032                	flw	ft0,44(sp)
  18:	5f30                	lw	a2,120(a4)
  1a:	3266                	fld	ft4,120(sp)
  1c:	3070                	fld	fa2,224(s0)
  1e:	0800                	addi	s0,sp,16
  20:	0a01                	addi	s4,s4,0
  22:	0b              	Address 0x0000000000000022 is out of bounds.


セクション .debug_line の逆アセンブル:

00000000 <.debug_line>:
   0:	009a                	slli	ra,ra,0x6
   2:	0000                	unimp
   4:	0005                	c.nop	1
   6:	0004                	0x4
   8:	002e                	c.slli	zero,0xb
   a:	0000                	unimp
   c:	0101                	addi	sp,sp,0
   e:	fb01                	bnez	a4,ffffff1e <_end+0xffbffa0e>
  10:	0d0e                	slli	s10,s10,0x3
  12:	0100                	addi	s0,sp,128
  14:	0101                	addi	sp,sp,0
  16:	0001                	nop
  18:	0000                	unimp
  1a:	0001                	nop
  1c:	0100                	addi	s0,sp,128
  1e:	0101                	addi	sp,sp,0
  20:	021f 0000 0000      	0x21f
  26:	0000                	unimp
  28:	0000                	unimp
  2a:	0102                	c.slli64	sp
  2c:	021f 020f 000e      	0xe020f021f
  32:	0000                	unimp
  34:	0e00                	addi	s0,sp,784
  36:	0000                	unimp
  38:	0100                	addi	s0,sp,128
  3a:	0500                	addi	s0,sp,640
  3c:	0002                	c.slli64	zero
  3e:	4000                	lw	s0,0(s0)
  40:	0300                	addi	s0,sp,384
  42:	010d                	addi	sp,sp,3
  44:	8c090603          	lb	a2,-1856(s2)
  48:	0101                	addi	sp,sp,0
  4a:	34090103          	lb	sp,832(s2)
  4e:	0100                	addi	s0,sp,128
  50:	34090103          	lb	sp,832(s2)
  54:	0100                	addi	s0,sp,128
  56:	34090203          	lb	tp,832(s2)
  5a:	0100                	addi	s0,sp,128
  5c:	34090103          	lb	sp,832(s2)
  60:	0100                	addi	s0,sp,128
  62:	34090103          	lb	sp,832(s2)
  66:	0100                	addi	s0,sp,128
  68:	34090203          	lb	tp,832(s2)
  6c:	0100                	addi	s0,sp,128
  6e:	34090103          	lb	sp,832(s2)
  72:	0100                	addi	s0,sp,128
  74:	34090103          	lb	sp,832(s2)
  78:	0100                	addi	s0,sp,128
  7a:	34090203          	lb	tp,832(s2)
  7e:	0100                	addi	s0,sp,128
  80:	34090103          	lb	sp,832(s2)
  84:	0100                	addi	s0,sp,128
  86:	34090103          	lb	sp,832(s2)
  8a:	0100                	addi	s0,sp,128
  8c:	34090203          	lb	tp,832(s2)
  90:	0100                	addi	s0,sp,128
  92:	40090203          	lb	tp,1024(s2)
  96:	0100                	addi	s0,sp,128
  98:	0409                	addi	s0,s0,2
  9a:	0000                	unimp
  9c:	0101                	addi	sp,sp,0

セクション .debug_line_str の逆アセンブル:

00000000 <.debug_line_str>:
   0:	2f637273          	csrrci	tp,0x2f6,6
   4:	2e2e                	fld	ft8,200(sp)
   6:	3676722f          	0x3676722f
   a:	7534                	flw	fa3,104(a0)
   c:	0066                	c.slli	zero,0x19
   e:	6d66                	flw	fs10,88(sp)
  10:	6461                	lui	s0,0x18
  12:	2e64                	fld	fs1,216(a2)
  14:	          	fadd.s	ft0,ft0,ft0,rne

セクション .debug_info の逆アセンブル:

00000000 <.debug_info>:
   0:	0021                	c.nop	8
   2:	0000                	unimp
   4:	0005                	c.nop	1
   6:	0401                	addi	s0,s0,0
   8:	0000                	unimp
   a:	0000                	unimp
   c:	0001                	nop
   e:	0000                	unimp
  10:	0000                	unimp
  12:	4000                	lw	s0,0(s0)
  14:	fc00                	fsw	fs0,56(s0)
  16:	0008                	0x8
  18:	0000                	unimp
  1a:	0800                	addi	s0,sp,16
  1c:	0000                	unimp
  1e:	5500                	lw	s0,40(a0)
  20:	0000                	unimp
  22:	0100                	addi	s0,sp,128
  24:	80              	Address 0x0000000000000024 is out of bounds.


セクション .debug_abbrev の逆アセンブル:

00000000 <.debug_abbrev>:
   0:	1101                	addi	sp,sp,-32
   2:	1000                	addi	s0,sp,32
   4:	12011117          	auipc	sp,0x12011
   8:	1b0e030f          	0x1b0e030f
   c:	250e                	fld	fa0,192(sp)
   e:	130e                	slli	t1,t1,0x23
  10:	0005                	c.nop	1
	...

セクション .debug_aranges の逆アセンブル:

00000000 <.debug_aranges>:
   0:	001c                	0x1c
   2:	0000                	unimp
   4:	0002                	c.slli64	zero
   6:	0000                	unimp
   8:	0000                	unimp
   a:	0004                	0x4
   c:	0000                	unimp
   e:	0000                	unimp
  10:	0000                	unimp
  12:	0040                	addi	s0,sp,4
  14:	0440                	addi	s0,sp,516
	...

セクション .debug_str の逆アセンブル:

00000000 <.debug_str>:
   0:	6d66                	flw	fs10,88(sp)
   2:	6461                	lui	s0,0x18
   4:	2e64                	fld	fs1,216(a2)
   6:	682f0053          	0x682f0053
   a:	2f656d6f          	jal	s10,56300 <tohost-0x2a9d00>
   e:	6168                	flw	fa0,68(a0)
  10:	616d                	addi	sp,sp,240
  12:	6164                	flw	fs1,68(a0)
  14:	7369722f          	0x7369722f
  18:	5f762d63          	0x5f762d63
  1c:	2f746967          	0x2f746967
  20:	6972                	flw	fs2,28(sp)
  22:	2d766373          	csrrsi	t1,0x2d7,12
  26:	6574                	flw	fa3,76(a0)
  28:	5f737473          	csrrci	s0,0x5f7,6
  2c:	69722f43          	fmadd.s	ft10,ft4,fs7,fa3,rdn
  30:	2d766373          	csrrsi	t1,0x2d7,12
  34:	6574                	flw	fa3,76(a0)
  36:	2f737473          	csrrci	s0,0x2f7,6
  3a:	6972                	flw	fs2,28(sp)
  3c:	2d766373          	csrrsi	t1,0x2d7,12
  40:	6574                	flw	fa3,76(a0)
  42:	732d7473          	csrrci	s0,0x732,26
  46:	6975                	lui	s2,0x1d
  48:	6574                	flw	fa3,76(a0)
  4a:	3376722f          	0x3376722f
  4e:	6932                	flw	fs2,12(sp)
  50:	6d5f 462f 4700      	0x4700462f6d5f
  56:	554e                	lw	a0,240(sp)
  58:	4120                	lw	s0,64(a0)
  5a:	2e322053          	0x2e322053
  5e:	312e3633          	0x312e3633
	...
