
/home/hamada/risc-v_git/riscv-tests_C/riscv-tests/work/rv32i_m/F/fmin.elf:     ファイル形式 elf32-littleriscv


セクション .text.init の逆アセンブル:

00400000 <_start>:
  400000:	04c0006f          	j	40004c <reset_vector>

00400004 <trap_vector>:
  400004:	34202f73          	csrr	t5,mcause
  400008:	00800f93          	li	t6,8
  40000c:	03ff0a63          	beq	t5,t6,400040 <write_tohost>
  400010:	00900f93          	li	t6,9
  400014:	03ff0663          	beq	t5,t6,400040 <write_tohost>
  400018:	00b00f93          	li	t6,11
  40001c:	03ff0263          	beq	t5,t6,400040 <write_tohost>
  400020:	ffc00f17          	auipc	t5,0xffc00
  400024:	fe0f0f13          	addi	t5,t5,-32 # 0 <tohost-0x300000>
  400028:	000f0463          	beqz	t5,400030 <trap_vector+0x2c>
  40002c:	000f0067          	jr	t5
  400030:	34202f73          	csrr	t5,mcause
  400034:	000f5463          	bgez	t5,40003c <handle_exception>
  400038:	0040006f          	j	40003c <handle_exception>

0040003c <handle_exception>:
  40003c:	5391e193          	ori	gp,gp,1337

00400040 <write_tohost>:
  400040:	fff00f17          	auipc	t5,0xfff00
  400044:	fc3f2023          	sw	gp,-64(t5) # 300000 <tohost>
  400048:	ff9ff06f          	j	400040 <write_tohost>

0040004c <reset_vector>:
  40004c:	00000093          	li	ra,0
  400050:	00000113          	li	sp,0
  400054:	00000193          	li	gp,0
  400058:	00000213          	li	tp,0
  40005c:	00000293          	li	t0,0
  400060:	00000313          	li	t1,0
  400064:	00000393          	li	t2,0
  400068:	00000413          	li	s0,0
  40006c:	00000493          	li	s1,0
  400070:	00000513          	li	a0,0
  400074:	00000593          	li	a1,0
  400078:	00000613          	li	a2,0
  40007c:	00000693          	li	a3,0
  400080:	00000713          	li	a4,0
  400084:	00000793          	li	a5,0
  400088:	00000813          	li	a6,0
  40008c:	00000893          	li	a7,0
  400090:	00000913          	li	s2,0
  400094:	00000993          	li	s3,0
  400098:	00000a13          	li	s4,0
  40009c:	00000a93          	li	s5,0
  4000a0:	00000b13          	li	s6,0
  4000a4:	00000b93          	li	s7,0
  4000a8:	00000c13          	li	s8,0
  4000ac:	00000c93          	li	s9,0
  4000b0:	00000d13          	li	s10,0
  4000b4:	00000d93          	li	s11,0
  4000b8:	00000e13          	li	t3,0
  4000bc:	00000e93          	li	t4,0
  4000c0:	00000f13          	li	t5,0
  4000c4:	00000f93          	li	t6,0
  4000c8:	f1402573          	csrr	a0,mhartid
  4000cc:	00051063          	bnez	a0,4000cc <reset_vector+0x80>
  4000d0:	00000297          	auipc	t0,0x0
  4000d4:	01028293          	addi	t0,t0,16 # 4000e0 <reset_vector+0x94>
  4000d8:	30529073          	csrw	mtvec,t0
  4000dc:	18005073          	csrwi	satp,0
  4000e0:	00000297          	auipc	t0,0x0
  4000e4:	02028293          	addi	t0,t0,32 # 400100 <reset_vector+0xb4>
  4000e8:	30529073          	csrw	mtvec,t0
  4000ec:	800002b7          	lui	t0,0x80000
  4000f0:	fff28293          	addi	t0,t0,-1 # 7fffffff <_end+0x7fbff94f>
  4000f4:	3b029073          	csrw	pmpaddr0,t0
  4000f8:	01f00293          	li	t0,31
  4000fc:	3a029073          	csrw	pmpcfg0,t0
  400100:	30405073          	csrwi	mie,0
  400104:	00000297          	auipc	t0,0x0
  400108:	01428293          	addi	t0,t0,20 # 400118 <reset_vector+0xcc>
  40010c:	30529073          	csrw	mtvec,t0
  400110:	30205073          	csrwi	medeleg,0
  400114:	30305073          	csrwi	mideleg,0
  400118:	00000193          	li	gp,0
  40011c:	00000297          	auipc	t0,0x0
  400120:	ee828293          	addi	t0,t0,-280 # 400004 <trap_vector>
  400124:	30529073          	csrw	mtvec,t0
  400128:	00100513          	li	a0,1
  40012c:	01f51513          	slli	a0,a0,0x1f
  400130:	00054e63          	bltz	a0,40014c <reset_vector+0x100>
  400134:	0ff0000f          	fence
  400138:	00100193          	li	gp,1
  40013c:	05d00893          	li	a7,93
  400140:	00000513          	li	a0,0
  400144:	cda2d073          	csrwi	0xcda,5
  400148:	00000073          	ecall
  40014c:	ffc00297          	auipc	t0,0xffc00
  400150:	eb428293          	addi	t0,t0,-332 # 0 <tohost-0x300000>
  400154:	00028a63          	beqz	t0,400168 <reset_vector+0x11c>
  400158:	10529073          	csrw	stvec,t0
  40015c:	0000b2b7          	lui	t0,0xb
  400160:	10928293          	addi	t0,t0,265 # b109 <tohost-0x2f4ef7>
  400164:	30229073          	csrw	medeleg,t0
  400168:	30005073          	csrwi	mstatus,0
  40016c:	00002537          	lui	a0,0x2
  400170:	30052073          	csrs	mstatus,a0
  400174:	00305073          	csrwi	fcsr,0
  400178:	00000297          	auipc	t0,0x0
  40017c:	01428293          	addi	t0,t0,20 # 40018c <test_2>
  400180:	34129073          	csrw	mepc,t0
  400184:	f1402573          	csrr	a0,mhartid
  400188:	30200073          	mret

0040018c <test_2>:
  40018c:	00200193          	li	gp,2
  400190:	00000517          	auipc	a0,0x0
  400194:	40050513          	addi	a0,a0,1024 # 400590 <test_2_data>
  400198:	00052007          	flw	ft0,0(a0)
  40019c:	00452087          	flw	ft1,4(a0)
  4001a0:	00852107          	flw	ft2,8(a0)
  4001a4:	00c52683          	lw	a3,12(a0)
  4001a8:	281001d3          	fmin.s	ft3,ft0,ft1
  4001ac:	e0018553          	fmv.x.w	a0,ft3
  4001b0:	001015f3          	fsflags	a1,zero
  4001b4:	00000613          	li	a2,0
  4001b8:	38d51063          	bne	a0,a3,400538 <fail>
  4001bc:	36c59e63          	bne	a1,a2,400538 <fail>

004001c0 <test_3>:
  4001c0:	00300193          	li	gp,3
  4001c4:	00000517          	auipc	a0,0x0
  4001c8:	3dc50513          	addi	a0,a0,988 # 4005a0 <test_3_data>
  4001cc:	00052007          	flw	ft0,0(a0)
  4001d0:	00452087          	flw	ft1,4(a0)
  4001d4:	00852107          	flw	ft2,8(a0)
  4001d8:	00c52683          	lw	a3,12(a0)
  4001dc:	281001d3          	fmin.s	ft3,ft0,ft1
  4001e0:	e0018553          	fmv.x.w	a0,ft3
  4001e4:	001015f3          	fsflags	a1,zero
  4001e8:	00000613          	li	a2,0
  4001ec:	34d51663          	bne	a0,a3,400538 <fail>
  4001f0:	34c59463          	bne	a1,a2,400538 <fail>

004001f4 <test_4>:
  4001f4:	00400193          	li	gp,4
  4001f8:	00000517          	auipc	a0,0x0
  4001fc:	3b850513          	addi	a0,a0,952 # 4005b0 <test_4_data>
  400200:	00052007          	flw	ft0,0(a0)
  400204:	00452087          	flw	ft1,4(a0)
  400208:	00852107          	flw	ft2,8(a0)
  40020c:	00c52683          	lw	a3,12(a0)
  400210:	281001d3          	fmin.s	ft3,ft0,ft1
  400214:	e0018553          	fmv.x.w	a0,ft3
  400218:	001015f3          	fsflags	a1,zero
  40021c:	00000613          	li	a2,0
  400220:	30d51c63          	bne	a0,a3,400538 <fail>
  400224:	30c59a63          	bne	a1,a2,400538 <fail>

00400228 <test_5>:
  400228:	00500193          	li	gp,5
  40022c:	00000517          	auipc	a0,0x0
  400230:	39450513          	addi	a0,a0,916 # 4005c0 <test_5_data>
  400234:	00052007          	flw	ft0,0(a0)
  400238:	00452087          	flw	ft1,4(a0)
  40023c:	00852107          	flw	ft2,8(a0)
  400240:	00c52683          	lw	a3,12(a0)
  400244:	281001d3          	fmin.s	ft3,ft0,ft1
  400248:	e0018553          	fmv.x.w	a0,ft3
  40024c:	001015f3          	fsflags	a1,zero
  400250:	00000613          	li	a2,0
  400254:	2ed51263          	bne	a0,a3,400538 <fail>
  400258:	2ec59063          	bne	a1,a2,400538 <fail>

0040025c <test_6>:
  40025c:	00600193          	li	gp,6
  400260:	00000517          	auipc	a0,0x0
  400264:	37050513          	addi	a0,a0,880 # 4005d0 <test_6_data>
  400268:	00052007          	flw	ft0,0(a0)
  40026c:	00452087          	flw	ft1,4(a0)
  400270:	00852107          	flw	ft2,8(a0)
  400274:	00c52683          	lw	a3,12(a0)
  400278:	281001d3          	fmin.s	ft3,ft0,ft1
  40027c:	e0018553          	fmv.x.w	a0,ft3
  400280:	001015f3          	fsflags	a1,zero
  400284:	00000613          	li	a2,0
  400288:	2ad51863          	bne	a0,a3,400538 <fail>
  40028c:	2ac59663          	bne	a1,a2,400538 <fail>

00400290 <test_7>:
  400290:	00700193          	li	gp,7
  400294:	00000517          	auipc	a0,0x0
  400298:	34c50513          	addi	a0,a0,844 # 4005e0 <test_7_data>
  40029c:	00052007          	flw	ft0,0(a0)
  4002a0:	00452087          	flw	ft1,4(a0)
  4002a4:	00852107          	flw	ft2,8(a0)
  4002a8:	00c52683          	lw	a3,12(a0)
  4002ac:	281001d3          	fmin.s	ft3,ft0,ft1
  4002b0:	e0018553          	fmv.x.w	a0,ft3
  4002b4:	001015f3          	fsflags	a1,zero
  4002b8:	00000613          	li	a2,0
  4002bc:	26d51e63          	bne	a0,a3,400538 <fail>
  4002c0:	26c59c63          	bne	a1,a2,400538 <fail>

004002c4 <test_12>:
  4002c4:	00c00193          	li	gp,12
  4002c8:	00000517          	auipc	a0,0x0
  4002cc:	32850513          	addi	a0,a0,808 # 4005f0 <test_12_data>
  4002d0:	00052007          	flw	ft0,0(a0)
  4002d4:	00452087          	flw	ft1,4(a0)
  4002d8:	00852107          	flw	ft2,8(a0)
  4002dc:	00c52683          	lw	a3,12(a0)
  4002e0:	281011d3          	fmax.s	ft3,ft0,ft1
  4002e4:	e0018553          	fmv.x.w	a0,ft3
  4002e8:	001015f3          	fsflags	a1,zero
  4002ec:	00000613          	li	a2,0
  4002f0:	24d51463          	bne	a0,a3,400538 <fail>
  4002f4:	24c59263          	bne	a1,a2,400538 <fail>

004002f8 <test_13>:
  4002f8:	00d00193          	li	gp,13
  4002fc:	00000517          	auipc	a0,0x0
  400300:	30450513          	addi	a0,a0,772 # 400600 <test_13_data>
  400304:	00052007          	flw	ft0,0(a0)
  400308:	00452087          	flw	ft1,4(a0)
  40030c:	00852107          	flw	ft2,8(a0)
  400310:	00c52683          	lw	a3,12(a0)
  400314:	281011d3          	fmax.s	ft3,ft0,ft1
  400318:	e0018553          	fmv.x.w	a0,ft3
  40031c:	001015f3          	fsflags	a1,zero
  400320:	00000613          	li	a2,0
  400324:	20d51a63          	bne	a0,a3,400538 <fail>
  400328:	20c59863          	bne	a1,a2,400538 <fail>

0040032c <test_14>:
  40032c:	00e00193          	li	gp,14
  400330:	00000517          	auipc	a0,0x0
  400334:	2e050513          	addi	a0,a0,736 # 400610 <test_14_data>
  400338:	00052007          	flw	ft0,0(a0)
  40033c:	00452087          	flw	ft1,4(a0)
  400340:	00852107          	flw	ft2,8(a0)
  400344:	00c52683          	lw	a3,12(a0)
  400348:	281011d3          	fmax.s	ft3,ft0,ft1
  40034c:	e0018553          	fmv.x.w	a0,ft3
  400350:	001015f3          	fsflags	a1,zero
  400354:	00000613          	li	a2,0
  400358:	1ed51063          	bne	a0,a3,400538 <fail>
  40035c:	1cc59e63          	bne	a1,a2,400538 <fail>

00400360 <test_15>:
  400360:	00f00193          	li	gp,15
  400364:	00000517          	auipc	a0,0x0
  400368:	2bc50513          	addi	a0,a0,700 # 400620 <test_15_data>
  40036c:	00052007          	flw	ft0,0(a0)
  400370:	00452087          	flw	ft1,4(a0)
  400374:	00852107          	flw	ft2,8(a0)
  400378:	00c52683          	lw	a3,12(a0)
  40037c:	281011d3          	fmax.s	ft3,ft0,ft1
  400380:	e0018553          	fmv.x.w	a0,ft3
  400384:	001015f3          	fsflags	a1,zero
  400388:	00000613          	li	a2,0
  40038c:	1ad51663          	bne	a0,a3,400538 <fail>
  400390:	1ac59463          	bne	a1,a2,400538 <fail>

00400394 <test_16>:
  400394:	01000193          	li	gp,16
  400398:	00000517          	auipc	a0,0x0
  40039c:	29850513          	addi	a0,a0,664 # 400630 <test_16_data>
  4003a0:	00052007          	flw	ft0,0(a0)
  4003a4:	00452087          	flw	ft1,4(a0)
  4003a8:	00852107          	flw	ft2,8(a0)
  4003ac:	00c52683          	lw	a3,12(a0)
  4003b0:	281011d3          	fmax.s	ft3,ft0,ft1
  4003b4:	e0018553          	fmv.x.w	a0,ft3
  4003b8:	001015f3          	fsflags	a1,zero
  4003bc:	00000613          	li	a2,0
  4003c0:	16d51c63          	bne	a0,a3,400538 <fail>
  4003c4:	16c59a63          	bne	a1,a2,400538 <fail>

004003c8 <test_17>:
  4003c8:	01100193          	li	gp,17
  4003cc:	00000517          	auipc	a0,0x0
  4003d0:	27450513          	addi	a0,a0,628 # 400640 <test_17_data>
  4003d4:	00052007          	flw	ft0,0(a0)
  4003d8:	00452087          	flw	ft1,4(a0)
  4003dc:	00852107          	flw	ft2,8(a0)
  4003e0:	00c52683          	lw	a3,12(a0)
  4003e4:	281011d3          	fmax.s	ft3,ft0,ft1
  4003e8:	e0018553          	fmv.x.w	a0,ft3
  4003ec:	001015f3          	fsflags	a1,zero
  4003f0:	00000613          	li	a2,0
  4003f4:	14d51263          	bne	a0,a3,400538 <fail>
  4003f8:	14c59063          	bne	a1,a2,400538 <fail>

004003fc <test_20>:
  4003fc:	01400193          	li	gp,20
  400400:	00000517          	auipc	a0,0x0
  400404:	25050513          	addi	a0,a0,592 # 400650 <test_20_data>
  400408:	00052007          	flw	ft0,0(a0)
  40040c:	00452087          	flw	ft1,4(a0)
  400410:	00852107          	flw	ft2,8(a0)
  400414:	00c52683          	lw	a3,12(a0)
  400418:	281011d3          	fmax.s	ft3,ft0,ft1
  40041c:	e0018553          	fmv.x.w	a0,ft3
  400420:	001015f3          	fsflags	a1,zero
  400424:	01000613          	li	a2,16
  400428:	10d51863          	bne	a0,a3,400538 <fail>
  40042c:	10c59663          	bne	a1,a2,400538 <fail>

00400430 <test_21>:
  400430:	01500193          	li	gp,21
  400434:	00000517          	auipc	a0,0x0
  400438:	22c50513          	addi	a0,a0,556 # 400660 <test_21_data>
  40043c:	00052007          	flw	ft0,0(a0)
  400440:	00452087          	flw	ft1,4(a0)
  400444:	00852107          	flw	ft2,8(a0)
  400448:	00c52683          	lw	a3,12(a0)
  40044c:	281011d3          	fmax.s	ft3,ft0,ft1
  400450:	e0018553          	fmv.x.w	a0,ft3
  400454:	001015f3          	fsflags	a1,zero
  400458:	00000613          	li	a2,0
  40045c:	0cd51e63          	bne	a0,a3,400538 <fail>
  400460:	0cc59c63          	bne	a1,a2,400538 <fail>

00400464 <test_30>:
  400464:	01e00193          	li	gp,30
  400468:	00000517          	auipc	a0,0x0
  40046c:	20850513          	addi	a0,a0,520 # 400670 <test_30_data>
  400470:	00052007          	flw	ft0,0(a0)
  400474:	00452087          	flw	ft1,4(a0)
  400478:	00852107          	flw	ft2,8(a0)
  40047c:	00c52683          	lw	a3,12(a0)
  400480:	281001d3          	fmin.s	ft3,ft0,ft1
  400484:	e0018553          	fmv.x.w	a0,ft3
  400488:	001015f3          	fsflags	a1,zero
  40048c:	00000613          	li	a2,0
  400490:	0ad51463          	bne	a0,a3,400538 <fail>
  400494:	0ac59263          	bne	a1,a2,400538 <fail>

00400498 <test_31>:
  400498:	01f00193          	li	gp,31
  40049c:	00000517          	auipc	a0,0x0
  4004a0:	1e450513          	addi	a0,a0,484 # 400680 <test_31_data>
  4004a4:	00052007          	flw	ft0,0(a0)
  4004a8:	00452087          	flw	ft1,4(a0)
  4004ac:	00852107          	flw	ft2,8(a0)
  4004b0:	00c52683          	lw	a3,12(a0)
  4004b4:	281001d3          	fmin.s	ft3,ft0,ft1
  4004b8:	e0018553          	fmv.x.w	a0,ft3
  4004bc:	001015f3          	fsflags	a1,zero
  4004c0:	00000613          	li	a2,0
  4004c4:	06d51a63          	bne	a0,a3,400538 <fail>
  4004c8:	06c59863          	bne	a1,a2,400538 <fail>

004004cc <test_32>:
  4004cc:	02000193          	li	gp,32
  4004d0:	00000517          	auipc	a0,0x0
  4004d4:	1c050513          	addi	a0,a0,448 # 400690 <test_32_data>
  4004d8:	00052007          	flw	ft0,0(a0)
  4004dc:	00452087          	flw	ft1,4(a0)
  4004e0:	00852107          	flw	ft2,8(a0)
  4004e4:	00c52683          	lw	a3,12(a0)
  4004e8:	281011d3          	fmax.s	ft3,ft0,ft1
  4004ec:	e0018553          	fmv.x.w	a0,ft3
  4004f0:	001015f3          	fsflags	a1,zero
  4004f4:	00000613          	li	a2,0
  4004f8:	04d51063          	bne	a0,a3,400538 <fail>
  4004fc:	02c59e63          	bne	a1,a2,400538 <fail>

00400500 <test_33>:
  400500:	02100193          	li	gp,33
  400504:	00000517          	auipc	a0,0x0
  400508:	19c50513          	addi	a0,a0,412 # 4006a0 <test_33_data>
  40050c:	00052007          	flw	ft0,0(a0)
  400510:	00452087          	flw	ft1,4(a0)
  400514:	00852107          	flw	ft2,8(a0)
  400518:	00c52683          	lw	a3,12(a0)
  40051c:	281011d3          	fmax.s	ft3,ft0,ft1
  400520:	e0018553          	fmv.x.w	a0,ft3
  400524:	001015f3          	fsflags	a1,zero
  400528:	00000613          	li	a2,0
  40052c:	00d51663          	bne	a0,a3,400538 <fail>
  400530:	00c59463          	bne	a1,a2,400538 <fail>
  400534:	02301463          	bne	zero,gp,40055c <pass>

00400538 <fail>:
  400538:	0ff0000f          	fence
  40053c:	00018063          	beqz	gp,40053c <fail+0x4>
  400540:	00119193          	slli	gp,gp,0x1
  400544:	0011e193          	ori	gp,gp,1
  400548:	05d00893          	li	a7,93
  40054c:	00018513          	mv	a0,gp
  400550:	cda4d073          	csrwi	0xcda,9
  400554:	cd90e073          	csrsi	0xcd9,1
  400558:	00000073          	ecall

0040055c <pass>:
  40055c:	0ff0000f          	fence
  400560:	00100193          	li	gp,1
  400564:	05d00893          	li	a7,93
  400568:	00000513          	li	a0,0
  40056c:	cda2d073          	csrwi	0xcda,5
  400570:	00000073          	ecall
  400574:	c0001073          	unimp
	...

セクション .tohost の逆アセンブル:

00300000 <tohost>:
	...

00300040 <fromhost>:
	...

セクション .data の逆アセンブル:

00400590 <test_2_data>:
  400590:	0000                	unimp
  400592:	4020                	lw	s0,64(s0)
  400594:	0000                	unimp
  400596:	3f80                	fld	fs0,56(a5)
  400598:	0000                	unimp
  40059a:	0000                	unimp
  40059c:	0000                	unimp
  40059e:	3f80                	fld	fs0,56(a5)

004005a0 <test_3_data>:
  4005a0:	c49a6333          	0xc49a6333
  4005a4:	cccd                	beqz	s1,40065e <test_20_data+0xe>
  4005a6:	3f8c                	fld	fa1,56(a5)
  4005a8:	0000                	unimp
  4005aa:	0000                	unimp
  4005ac:	c49a6333          	0xc49a6333

004005b0 <test_4_data>:
  4005b0:	cccd                	beqz	s1,40066a <test_21_data+0xa>
  4005b2:	3f8c                	fld	fa1,56(a5)
  4005b4:	c49a6333          	0xc49a6333
  4005b8:	0000                	unimp
  4005ba:	0000                	unimp
  4005bc:	c49a6333          	0xc49a6333

004005c0 <test_5_data>:
  4005c0:	ffff                	0xffff
  4005c2:	7fff                	0x7fff
  4005c4:	c49a6333          	0xc49a6333
  4005c8:	0000                	unimp
  4005ca:	0000                	unimp
  4005cc:	c49a6333          	0xc49a6333

004005d0 <test_6_data>:
  4005d0:	40490fdb          	0x40490fdb
  4005d4:	322bcc77          	0x322bcc77
  4005d8:	0000                	unimp
  4005da:	0000                	unimp
  4005dc:	322bcc77          	0x322bcc77

004005e0 <test_7_data>:
  4005e0:	0000                	unimp
  4005e2:	bf80                	fsd	fs0,56(a5)
  4005e4:	0000                	unimp
  4005e6:	c000                	sw	s0,0(s0)
  4005e8:	0000                	unimp
  4005ea:	0000                	unimp
  4005ec:	0000                	unimp
  4005ee:	c000                	sw	s0,0(s0)

004005f0 <test_12_data>:
  4005f0:	0000                	unimp
  4005f2:	4020                	lw	s0,64(s0)
  4005f4:	0000                	unimp
  4005f6:	3f80                	fld	fs0,56(a5)
  4005f8:	0000                	unimp
  4005fa:	0000                	unimp
  4005fc:	0000                	unimp
  4005fe:	4020                	lw	s0,64(s0)

00400600 <test_13_data>:
  400600:	c49a6333          	0xc49a6333
  400604:	cccd                	beqz	s1,4006be <_end+0xe>
  400606:	3f8c                	fld	fa1,56(a5)
  400608:	0000                	unimp
  40060a:	0000                	unimp
  40060c:	cccd                	beqz	s1,4006c6 <_end+0x16>
  40060e:	3f8c                	fld	fa1,56(a5)

00400610 <test_14_data>:
  400610:	cccd                	beqz	s1,4006ca <_end+0x1a>
  400612:	3f8c                	fld	fa1,56(a5)
  400614:	c49a6333          	0xc49a6333
  400618:	0000                	unimp
  40061a:	0000                	unimp
  40061c:	cccd                	beqz	s1,4006d6 <_end+0x26>
  40061e:	3f8c                	fld	fa1,56(a5)

00400620 <test_15_data>:
  400620:	ffff                	0xffff
  400622:	7fff                	0x7fff
  400624:	c49a6333          	0xc49a6333
  400628:	0000                	unimp
  40062a:	0000                	unimp
  40062c:	c49a6333          	0xc49a6333

00400630 <test_16_data>:
  400630:	40490fdb          	0x40490fdb
  400634:	322bcc77          	0x322bcc77
  400638:	0000                	unimp
  40063a:	0000                	unimp
  40063c:	40490fdb          	0x40490fdb

00400640 <test_17_data>:
  400640:	0000                	unimp
  400642:	bf80                	fsd	fs0,56(a5)
  400644:	0000                	unimp
  400646:	c000                	sw	s0,0(s0)
  400648:	0000                	unimp
  40064a:	0000                	unimp
  40064c:	0000                	unimp
  40064e:	bf80                	fsd	fs0,56(a5)

00400650 <test_20_data>:
  400650:	0001                	nop
  400652:	7f80                	flw	fs0,56(a5)
  400654:	0000                	unimp
  400656:	3f80                	fld	fs0,56(a5)
  400658:	0000                	unimp
  40065a:	0000                	unimp
  40065c:	0000                	unimp
  40065e:	3f80                	fld	fs0,56(a5)

00400660 <test_21_data>:
  400660:	ffff                	0xffff
  400662:	7fff                	0x7fff
  400664:	ffff                	0xffff
  400666:	7fff                	0x7fff
  400668:	0000                	unimp
  40066a:	0000                	unimp
  40066c:	0000                	unimp
  40066e:	7fc0                	flw	fs0,60(a5)

00400670 <test_30_data>:
  400670:	0000                	unimp
  400672:	8000                	0x8000
	...
  40067c:	0000                	unimp
  40067e:	8000                	0x8000

00400680 <test_31_data>:
  400680:	0000                	unimp
  400682:	0000                	unimp
  400684:	0000                	unimp
  400686:	8000                	0x8000
  400688:	0000                	unimp
  40068a:	0000                	unimp
  40068c:	0000                	unimp
  40068e:	8000                	0x8000

00400690 <test_32_data>:
  400690:	0000                	unimp
  400692:	8000                	0x8000
	...

004006a0 <test_33_data>:
  4006a0:	0000                	unimp
  4006a2:	0000                	unimp
  4006a4:	0000                	unimp
  4006a6:	8000                	0x8000
	...

セクション .riscv.attributes の逆アセンブル:

00000000 <.riscv.attributes>:
   0:	2241                	jal	180 <tohost-0x2ffe80>
   2:	0000                	unimp
   4:	7200                	flw	fs0,32(a2)
   6:	7369                	lui	t1,0xffffa
   8:	01007663          	bgeu	zero,a6,14 <tohost-0x2fffec>
   c:	0018                	0x18
   e:	0000                	unimp
  10:	7205                	lui	tp,0xfffe1
  12:	3376                	fld	ft6,376(sp)
  14:	6932                	flw	fs2,12(sp)
  16:	7032                	flw	ft0,44(sp)
  18:	5f30                	lw	a2,120(a4)
  1a:	3266                	fld	ft4,120(sp)
  1c:	3070                	fld	fa2,224(s0)
  1e:	0800                	addi	s0,sp,16
  20:	0a01                	addi	s4,s4,0
  22:	0b              	Address 0x0000000000000022 is out of bounds.


セクション .debug_line の逆アセンブル:

00000000 <.debug_line>:
   0:	00be                	slli	ra,ra,0xf
   2:	0000                	unimp
   4:	0005                	c.nop	1
   6:	0004                	0x4
   8:	002e                	c.slli	zero,0xb
   a:	0000                	unimp
   c:	0101                	addi	sp,sp,0
   e:	fb01                	bnez	a4,ffffff1e <_end+0xffbff86e>
  10:	0d0e                	slli	s10,s10,0x3
  12:	0100                	addi	s0,sp,128
  14:	0101                	addi	sp,sp,0
  16:	0001                	nop
  18:	0000                	unimp
  1a:	0001                	nop
  1c:	0100                	addi	s0,sp,128
  1e:	0101                	addi	sp,sp,0
  20:	021f 0000 0000      	0x21f
  26:	0000                	unimp
  28:	0000                	unimp
  2a:	0102                	c.slli64	sp
  2c:	021f 020f 000e      	0xe020f021f
  32:	0000                	unimp
  34:	0e00                	addi	s0,sp,784
  36:	0000                	unimp
  38:	0100                	addi	s0,sp,128
  3a:	0500                	addi	s0,sp,640
  3c:	0002                	c.slli64	zero
  3e:	4000                	lw	s0,0(s0)
  40:	0300                	addi	s0,sp,384
  42:	010d                	addi	sp,sp,3
  44:	8c090603          	lb	a2,-1856(s2)
  48:	0101                	addi	sp,sp,0
  4a:	34090103          	lb	sp,832(s2)
  4e:	0100                	addi	s0,sp,128
  50:	34090103          	lb	sp,832(s2)
  54:	0100                	addi	s0,sp,128
  56:	34090103          	lb	sp,832(s2)
  5a:	0100                	addi	s0,sp,128
  5c:	34090103          	lb	sp,832(s2)
  60:	0100                	addi	s0,sp,128
  62:	34090103          	lb	sp,832(s2)
  66:	0100                	addi	s0,sp,128
  68:	34090203          	lb	tp,832(s2)
  6c:	0100                	addi	s0,sp,128
  6e:	34090103          	lb	sp,832(s2)
  72:	0100                	addi	s0,sp,128
  74:	34090103          	lb	sp,832(s2)
  78:	0100                	addi	s0,sp,128
  7a:	34090103          	lb	sp,832(s2)
  7e:	0100                	addi	s0,sp,128
  80:	34090103          	lb	sp,832(s2)
  84:	0100                	addi	s0,sp,128
  86:	34090103          	lb	sp,832(s2)
  8a:	0100                	addi	s0,sp,128
  8c:	34090303          	lb	t1,832(s2)
  90:	0100                	addi	s0,sp,128
  92:	34090203          	lb	tp,832(s2)
  96:	0100                	addi	s0,sp,128
  98:	34090303          	lb	t1,832(s2)
  9c:	0100                	addi	s0,sp,128
  9e:	34090103          	lb	sp,832(s2)
  a2:	0100                	addi	s0,sp,128
  a4:	34090103          	lb	sp,832(s2)
  a8:	0100                	addi	s0,sp,128
  aa:	34090103          	lb	sp,832(s2)
  ae:	0100                	addi	s0,sp,128
  b0:	34090203          	lb	tp,832(s2)
  b4:	0100                	addi	s0,sp,128
  b6:	40090203          	lb	tp,1024(s2)
  ba:	0100                	addi	s0,sp,128
  bc:	0409                	addi	s0,s0,2
  be:	0000                	unimp
  c0:	0101                	addi	sp,sp,0

セクション .debug_line_str の逆アセンブル:

00000000 <.debug_line_str>:
   0:	2f637273          	csrrci	tp,0x2f6,6
   4:	2e2e                	fld	ft8,200(sp)
   6:	3676722f          	0x3676722f
   a:	7534                	flw	fa3,104(a0)
   c:	0066                	c.slli	zero,0x19
   e:	6d66                	flw	fs10,88(sp)
  10:	6e69                	lui	t3,0x1a
  12:	532e                	lw	t1,232(sp)
	...

セクション .debug_info の逆アセンブル:

00000000 <.debug_info>:
   0:	0021                	c.nop	8
   2:	0000                	unimp
   4:	0005                	c.nop	1
   6:	0401                	addi	s0,s0,0
   8:	0000                	unimp
   a:	0000                	unimp
   c:	0001                	nop
   e:	0000                	unimp
  10:	0000                	unimp
  12:	4000                	lw	s0,0(s0)
  14:	b400                	fsd	fs0,40(s0)
  16:	0000000b          	0xb
  1a:	0700                	addi	s0,sp,896
  1c:	0000                	unimp
  1e:	5400                	lw	s0,40(s0)
  20:	0000                	unimp
  22:	0100                	addi	s0,sp,128
  24:	80              	Address 0x0000000000000024 is out of bounds.


セクション .debug_abbrev の逆アセンブル:

00000000 <.debug_abbrev>:
   0:	1101                	addi	sp,sp,-32
   2:	1000                	addi	s0,sp,32
   4:	12011117          	auipc	sp,0x12011
   8:	1b0e030f          	0x1b0e030f
   c:	250e                	fld	fa0,192(sp)
   e:	130e                	slli	t1,t1,0x23
  10:	0005                	c.nop	1
	...

セクション .debug_aranges の逆アセンブル:

00000000 <.debug_aranges>:
   0:	001c                	0x1c
   2:	0000                	unimp
   4:	0002                	c.slli64	zero
   6:	0000                	unimp
   8:	0000                	unimp
   a:	0004                	0x4
   c:	0000                	unimp
   e:	0000                	unimp
  10:	0000                	unimp
  12:	0040                	addi	s0,sp,4
  14:	0578                	addi	a4,sp,652
	...

セクション .debug_str の逆アセンブル:

00000000 <.debug_str>:
   0:	6d66                	flw	fs10,88(sp)
   2:	6e69                	lui	t3,0x1a
   4:	532e                	lw	t1,232(sp)
   6:	2f00                	fld	fs0,24(a4)
   8:	6f68                	flw	fa0,92(a4)
   a:	656d                	lui	a0,0x1b
   c:	6d61682f          	0x6d61682f
  10:	6461                	lui	s0,0x18
  12:	2f61                	jal	7aa <tohost-0x2ff856>
  14:	6972                	flw	fs2,28(sp)
  16:	762d6373          	csrrsi	t1,0x762,26
  1a:	675f 7469 722f      	0x722f7469675f
  20:	7369                	lui	t1,0xffffa
  22:	742d7663          	bgeu	s10,sp,76e <tohost-0x2ff892>
  26:	7365                	lui	t1,0xffff9
  28:	7374                	flw	fa3,100(a4)
  2a:	435f 722f 7369      	0x7369722f435f
  30:	742d7663          	bgeu	s10,sp,77c <tohost-0x2ff884>
  34:	7365                	lui	t1,0xffff9
  36:	7374                	flw	fa3,100(a4)
  38:	7369722f          	0x7369722f
  3c:	742d7663          	bgeu	s10,sp,788 <tohost-0x2ff878>
  40:	7365                	lui	t1,0xffff9
  42:	2d74                	fld	fa3,216(a0)
  44:	74697573          	csrrci	a0,0x746,18
  48:	2f65                	jal	800 <tohost-0x2ff800>
  4a:	7672                	flw	fa2,60(sp)
  4c:	5f693233          	0x5f693233
  50:	2f6d                	jal	80a <tohost-0x2ff7f6>
  52:	0046                	c.slli	zero,0x11
  54:	20554e47          	fmsub.s	ft8,fa0,ft5,ft4,rmm
  58:	5341                	li	t1,-16
  5a:	3220                	fld	fs0,96(a2)
  5c:	332e                	fld	ft6,232(sp)
  5e:	2e36                	fld	ft8,328(sp)
  60:	0031                	c.nop	12
